

HI-TECH Software PIC LITE Macro Assembler V9.83 build 10920 
                                                                                               Wed Mar 27 17:02:34 2013

HI-TECH Software Omniscient Code Generator (Lite mode) build 10920
     1  0000                     opt subtitle "HI-TECH Software Omniscient Code Generator (Lite mode) build 10920"
     2                           
     3                           opt pagewidth 120
     4                           
     5                           	opt lm
     6                           
     7                           	processor	16F877A
     8                           clrc	macro
     9                           	bcf	3,0
    10  0000                     	endm
    11                           clrz	macro
    12                           	bcf	3,2
    13  0000                     	endm
    14                           setc	macro
    15                           	bsf	3,0
    16  0000                     	endm
    17                           setz	macro
    18                           	bsf	3,2
    19  0000                     	endm
    20                           skipc	macro
    21                           	btfss	3,0
    22  0000                     	endm
    23                           skipz	macro
    24                           	btfss	3,2
    25  0000                     	endm
    26                           skipnc	macro
    27                           	btfsc	3,0
    28  0000                     	endm
    29                           skipnz	macro
    30                           	btfsc	3,2
    31  0000                     	endm
    32  0000                     indf	equ	0
    33  0000                     indf0	equ	0
    34  0002                     pc	equ	2
    35  0002                     pcl	equ	2
    36  0003                     status	equ	3
    37  0004                     fsr	equ	4
    38  0004                     fsr0	equ	4
    39  0001                     c	equ	1
    40  0000                     z	equ	0
    41  000A                     pclath	equ	10
    42                           # 12 "LED_Ticker.c"
    43                           	psect config,class=CONFIG,delta=2 ;#
    44                           # 12 "LED_Ticker.c"
    45  2007  FF3A               	dw 0xFFFE & 0xFFFB & 0xFFFF & 0xFFFF & 0xFFBF & 0xFFFF & 0xFF7F ;#
    46                           	FNCALL	_main,_init_ports
    47                           	FNCALL	_main,___wmul
    48                           	FNCALL	_main,_display
    49                           	FNCALL	_display,___wmul
    50                           	FNROOT	_main
    51                           	global	main@F1286
    52                           psect	idataBANK0,class=CODE,space=0,delta=2
    53                           global __pidataBANK0
    54  004D                     __pidataBANK0:
    55                           	file	"LED_Ticker.c"
    56                           	line	705
    57                           
    58                           ;initializer for main@F1286
    59  004D  3401               	retlw	01h
    60  004E  3400               	retlw	0
    61                           
    62  004F  3400               	retlw	0
    63  0050  3400               	retlw	0
    64                           
    65  0051  340B               	retlw	0Bh
    66  0052  3400               	retlw	0
    67                           
    68  0053  340B               	retlw	0Bh
    69  0054  3400               	retlw	0
    70                           
    71  0055  3412               	retlw	012h
    72  0056  3400               	retlw	0
    73                           
    74  0057  3400               	retlw	0
    75  0058  3400               	retlw	0
    76  0059  3400               	retlw	0
    77  005A  3400               	retlw	0
    78  005B  3400               	retlw	0
    79  005C  3400               	retlw	0
    80  005D  3400               	retlw	0
    81  005E  3400               	retlw	0
    82                           	global	_characters
    83                           psect	stringtext,class=STRCODE,delta=2,reloc=256
    84                           global __pstringtext
    85  0800                     __pstringtext:
    86                           ;	global	stringtab,__stringbase
    87  0800                     stringtab:
    88                           ;	String table - string pointers are 2 bytes each
    89  0800  1BFF               	btfsc	(btemp+1),7
    90  0801  280A               	ljmp	stringcode
    91  0802  1383               	bcf	status,7
    92  0803  187F               	btfsc	(btemp+1),0
    93  0804  1783               	bsf	status,7
    94  0805  0800               	movf	indf,w
    95  0806  0A84               	incf fsr
    96  0807  1903               skipnz
    97  0808  0AFF               incf btemp+1
    98  0809  0008               	return
    99  080A                     stringcode:
   100  080A  087F               	movf btemp+1,w
   101  080B  397F               andlw 7Fh
   102  080C  008A               movwf	pclath
   103  080D  0804               	movf	fsr,w
   104  080E  0A84               incf fsr
   105  080F  1903               skipnz
   106  0810  0AFF               incf btemp+1
   107  0811  0082               	movwf pc
   108  0812                     __stringbase:
   109                           	file	"LED_Ticker.c"
   110                           	line	71
   111  0812                     _characters:
   112  0812  343F               	retlw	03Fh
   113  0813  3400               	retlw	0
   114                           
   115  0814  3480               	retlw	080h
   116  0815  3400               	retlw	0
   117                           
   118  0816  3448               	retlw	048h
   119  0817  3400               	retlw	0
   120                           
   121  0818  3400               	retlw	0
   122  0819  3400               	retlw	0
   123                           
   124  081A  3488               	retlw	088h
   125  081B  3400               	retlw	0
   126                           
   127  081C  3400               	retlw	0
   128  081D  3400               	retlw	0
   129                           
   130  081E  3488               	retlw	088h
   131  081F  3400               	retlw	0
   132                           
   133  0820  3400               	retlw	0
   134  0821  3400               	retlw	0
   135                           
   136  0822  3448               	retlw	048h
   137  0823  3400               	retlw	0
   138                           
   139  0824  3400               	retlw	0
   140  0825  3400               	retlw	0
   141                           
   142  0826  343F               	retlw	03Fh
   143  0827  3400               	retlw	0
   144                           
   145  0828  3480               	retlw	080h
   146  0829  3400               	retlw	0
   147                           
   148  082A  34FF               	retlw	0FFh
   149  082B  3400               	retlw	0
   150                           
   151  082C  3480               	retlw	080h
   152  082D  3400               	retlw	0
   153                           
   154  082E  3488               	retlw	088h
   155  082F  3400               	retlw	0
   156                           
   157  0830  3480               	retlw	080h
   158  0831  3400               	retlw	0
   159                           
   160  0832  3488               	retlw	088h
   161  0833  3400               	retlw	0
   162                           
   163  0834  3480               	retlw	080h
   164  0835  3400               	retlw	0
   165                           
   166  0836  3488               	retlw	088h
   167  0837  3400               	retlw	0
   168                           
   169  0838  3480               	retlw	080h
   170  0839  3400               	retlw	0
   171                           
   172  083A  3488               	retlw	088h
   173  083B  3400               	retlw	0
   174                           
   175  083C  3480               	retlw	080h
   176  083D  3400               	retlw	0
   177                           
   178  083E  3477               	retlw	077h
   179  083F  3400               	retlw	0
   180                           
   181  0840  3400               	retlw	0
   182  0841  3400               	retlw	0
   183                           
   184  0842  347F               	retlw	07Fh
   185  0843  3400               	retlw	0
   186                           
   187  0844  3400               	retlw	0
   188  0845  3400               	retlw	0
   189                           
   190  0846  3480               	retlw	080h
   191  0847  3400               	retlw	0
   192                           
   193  0848  3480               	retlw	080h
   194  0849  3400               	retlw	0
   195                           
   196  084A  3480               	retlw	080h
   197  084B  3400               	retlw	0
   198                           
   199  084C  3480               	retlw	080h
   200  084D  3400               	retlw	0
   201                           
   202  084E  3480               	retlw	080h
   203  084F  3400               	retlw	0
   204                           
   205  0850  3480               	retlw	080h
   206  0851  3400               	retlw	0
   207                           
   208  0852  3480               	retlw	080h
   209  0853  3400               	retlw	0
   210                           
   211  0854  3480               	retlw	080h
   212  0855  3400               	retlw	0
   213                           
   214  0856  3441               	retlw	041h
   215  0857  3400               	retlw	0
   216                           
   217  0858  3400               	retlw	0
   218  0859  3400               	retlw	0
   219                           
   220  085A  34FF               	retlw	0FFh
   221  085B  3400               	retlw	0
   222                           
   223  085C  3480               	retlw	080h
   224  085D  3400               	retlw	0
   225                           
   226  085E  3480               	retlw	080h
   227  085F  3400               	retlw	0
   228                           
   229  0860  3480               	retlw	080h
   230  0861  3400               	retlw	0
   231                           
   232  0862  3480               	retlw	080h
   233  0863  3400               	retlw	0
   234                           
   235  0864  3480               	retlw	080h
   236  0865  3400               	retlw	0
   237                           
   238  0866  3480               	retlw	080h
   239  0867  3400               	retlw	0
   240                           
   241  0868  3480               	retlw	080h
   242  0869  3400               	retlw	0
   243                           
   244  086A  3441               	retlw	041h
   245  086B  3400               	retlw	0
   246                           
   247  086C  3400               	retlw	0
   248  086D  3400               	retlw	0
   249                           
   250  086E  3434               	retlw	034h
   251  086F  3400               	retlw	0
   252                           
   253  0870  3400               	retlw	0
   254  0871  3400               	retlw	0
   255                           
   256  0872  34FF               	retlw	0FFh
   257  0873  3400               	retlw	0
   258                           
   259  0874  3480               	retlw	080h
   260  0875  3400               	retlw	0
   261                           
   262  0876  3488               	retlw	088h
   263  0877  3400               	retlw	0
   264                           
   265  0878  3480               	retlw	080h
   266  0879  3400               	retlw	0
   267                           
   268  087A  3488               	retlw	088h
   269  087B  3400               	retlw	0
   270                           
   271  087C  3480               	retlw	080h
   272  087D  3400               	retlw	0
   273                           
   274  087E  3488               	retlw	088h
   275  087F  3400               	retlw	0
   276                           
   277  0880  3480               	retlw	080h
   278  0881  3400               	retlw	0
   279                           
   280  0882  3480               	retlw	080h
   281  0883  3400               	retlw	0
   282                           
   283  0884  3480               	retlw	080h
   284  0885  3400               	retlw	0
   285                           
   286  0886  3480               	retlw	080h
   287  0887  3400               	retlw	0
   288                           
   289  0888  3480               	retlw	080h
   290  0889  3400               	retlw	0
   291                           
   292  088A  34FF               	retlw	0FFh
   293  088B  3400               	retlw	0
   294                           
   295  088C  3480               	retlw	080h
   296  088D  3400               	retlw	0
   297                           
   298  088E  3488               	retlw	088h
   299  088F  3400               	retlw	0
   300                           
   301  0890  3400               	retlw	0
   302  0891  3400               	retlw	0
   303                           
   304  0892  3488               	retlw	088h
   305  0893  3400               	retlw	0
   306                           
   307  0894  3400               	retlw	0
   308  0895  3400               	retlw	0
   309                           
   310  0896  3488               	retlw	088h
   311  0897  3400               	retlw	0
   312                           
   313  0898  3400               	retlw	0
   314  0899  3400               	retlw	0
   315                           
   316  089A  3480               	retlw	080h
   317  089B  3400               	retlw	0
   318                           
   319  089C  3400               	retlw	0
   320  089D  3400               	retlw	0
   321                           
   322  089E  3480               	retlw	080h
   323  089F  3400               	retlw	0
   324                           
   325  08A0  3400               	retlw	0
   326  08A1  3400               	retlw	0
   327                           
   328  08A2  3476               	retlw	076h
   329  08A3  3400               	retlw	0
   330                           
   331  08A4  3400               	retlw	0
   332  08A5  3400               	retlw	0
   333                           
   334  08A6  3480               	retlw	080h
   335  08A7  3400               	retlw	0
   336                           
   337  08A8  3480               	retlw	080h
   338  08A9  3400               	retlw	0
   339                           
   340  08AA  3480               	retlw	080h
   341  08AB  3400               	retlw	0
   342                           
   343  08AC  3480               	retlw	080h
   344  08AD  3400               	retlw	0
   345                           
   346  08AE  3488               	retlw	088h
   347  08AF  3400               	retlw	0
   348                           
   349  08B0  3480               	retlw	080h
   350  08B1  3400               	retlw	0
   351                           
   352  08B2  3488               	retlw	088h
   353  08B3  3400               	retlw	0
   354                           
   355  08B4  3480               	retlw	080h
   356  08B5  3400               	retlw	0
   357                           
   358  08B6  344F               	retlw	04Fh
   359  08B7  3400               	retlw	0
   360                           
   361  08B8  3400               	retlw	0
   362  08B9  3400               	retlw	0
   363                           
   364  08BA  34FF               	retlw	0FFh
   365  08BB  3400               	retlw	0
   366                           
   367  08BC  3480               	retlw	080h
   368  08BD  3400               	retlw	0
   369                           
   370  08BE  3408               	retlw	08h
   371  08BF  3400               	retlw	0
   372                           
   373  08C0  3400               	retlw	0
   374  08C1  3400               	retlw	0
   375                           
   376  08C2  3408               	retlw	08h
   377  08C3  3400               	retlw	0
   378                           
   379  08C4  3400               	retlw	0
   380  08C5  3400               	retlw	0
   381                           
   382  08C6  3408               	retlw	08h
   383  08C7  3400               	retlw	0
   384                           
   385  08C8  3400               	retlw	0
   386  08C9  3400               	retlw	0
   387                           
   388  08CA  3408               	retlw	08h
   389  08CB  3400               	retlw	0
   390                           
   391  08CC  3400               	retlw	0
   392  08CD  3400               	retlw	0
   393                           
   394  08CE  34FF               	retlw	0FFh
   395  08CF  3400               	retlw	0
   396                           
   397  08D0  3480               	retlw	080h
   398  08D1  3400               	retlw	0
   399                           
   400  08D2  3480               	retlw	080h
   401  08D3  3400               	retlw	0
   402                           
   403  08D4  3480               	retlw	080h
   404  08D5  3400               	retlw	0
   405                           
   406  08D6  3480               	retlw	080h
   407  08D7  3400               	retlw	0
   408                           
   409  08D8  3480               	retlw	080h
   410  08D9  3400               	retlw	0
   411                           
   412  08DA  34FF               	retlw	0FFh
   413  08DB  3400               	retlw	0
   414                           
   415  08DC  3480               	retlw	080h
   416  08DD  3400               	retlw	0
   417                           
   418  08DE  3480               	retlw	080h
   419  08DF  3400               	retlw	0
   420                           
   421  08E0  3480               	retlw	080h
   422  08E1  3400               	retlw	0
   423                           
   424  08E2  3480               	retlw	080h
   425  08E3  3400               	retlw	0
   426                           
   427  08E4  3480               	retlw	080h
   428  08E5  3400               	retlw	0
   429                           
   430  08E6  3400               	retlw	0
   431  08E7  3400               	retlw	0
   432                           
   433  08E8  3400               	retlw	0
   434  08E9  3400               	retlw	0
   435                           
   436  08EA  3481               	retlw	081h
   437  08EB  3400               	retlw	0
   438                           
   439  08EC  3400               	retlw	0
   440  08ED  3400               	retlw	0
   441                           
   442  08EE  3480               	retlw	080h
   443  08EF  3400               	retlw	0
   444                           
   445  08F0  3480               	retlw	080h
   446  08F1  3400               	retlw	0
   447                           
   448  08F2  3480               	retlw	080h
   449  08F3  3400               	retlw	0
   450                           
   451  08F4  3480               	retlw	080h
   452  08F5  3400               	retlw	0
   453                           
   454  08F6  34FF               	retlw	0FFh
   455  08F7  3400               	retlw	0
   456                           
   457  08F8  3400               	retlw	0
   458  08F9  3400               	retlw	0
   459                           
   460  08FA  3480               	retlw	080h
   461  08FB  3400               	retlw	0
   462                           
   463  08FC  3400               	retlw	0
   464  08FD  3400               	retlw	0
   465                           
   466  08FE  3480               	retlw	080h
   467  08FF  3400               	retlw	0
   468                           
   469  0900  3400               	retlw	0
   470  0901  3400               	retlw	0
   471                           
   472  0902  34FF               	retlw	0FFh
   473  0903  3400               	retlw	0
   474                           
   475  0904  3480               	retlw	080h
   476  0905  3400               	retlw	0
   477                           
   478  0906  3408               	retlw	08h
   479  0907  3400               	retlw	0
   480                           
   481  0908  3400               	retlw	0
   482  0909  3400               	retlw	0
   483                           
   484  090A  3408               	retlw	08h
   485  090B  3400               	retlw	0
   486                           
   487  090C  3400               	retlw	0
   488  090D  3400               	retlw	0
   489                           
   490  090E  3414               	retlw	014h
   491  090F  3400               	retlw	0
   492                           
   493  0910  3400               	retlw	0
   494  0911  3400               	retlw	0
   495                           
   496  0912  3422               	retlw	022h
   497  0913  3400               	retlw	0
   498                           
   499  0914  3400               	retlw	0
   500  0915  3400               	retlw	0
   501                           
   502  0916  34C1               	retlw	0C1h
   503  0917  3400               	retlw	0
   504                           
   505  0918  3480               	retlw	080h
   506  0919  3400               	retlw	0
   507                           
   508  091A  34FF               	retlw	0FFh
   509  091B  3400               	retlw	0
   510                           
   511  091C  3480               	retlw	080h
   512  091D  3400               	retlw	0
   513                           
   514  091E  3400               	retlw	0
   515  091F  3400               	retlw	0
   516                           
   517  0920  3480               	retlw	080h
   518  0921  3400               	retlw	0
   519                           
   520  0922  3400               	retlw	0
   521  0923  3400               	retlw	0
   522                           
   523  0924  3480               	retlw	080h
   524  0925  3400               	retlw	0
   525                           
   526  0926  3400               	retlw	0
   527  0927  3400               	retlw	0
   528                           
   529  0928  3480               	retlw	080h
   530  0929  3400               	retlw	0
   531                           
   532  092A  3400               	retlw	0
   533  092B  3400               	retlw	0
   534                           
   535  092C  3480               	retlw	080h
   536  092D  3400               	retlw	0
   537                           
   538  092E  3400               	retlw	0
   539  092F  3400               	retlw	0
   540                           
   541  0930  3480               	retlw	080h
   542  0931  3400               	retlw	0
   543                           
   544  0932  34FF               	retlw	0FFh
   545  0933  3400               	retlw	0
   546                           
   547  0934  3480               	retlw	080h
   548  0935  3400               	retlw	0
   549                           
   550  0936  3460               	retlw	060h
   551  0937  3400               	retlw	0
   552                           
   553  0938  3400               	retlw	0
   554  0939  3400               	retlw	0
   555                           
   556  093A  3410               	retlw	010h
   557  093B  3400               	retlw	0
   558                           
   559  093C  3400               	retlw	0
   560  093D  3400               	retlw	0
   561                           
   562  093E  3410               	retlw	010h
   563  093F  3400               	retlw	0
   564                           
   565  0940  3400               	retlw	0
   566  0941  3400               	retlw	0
   567                           
   568  0942  3460               	retlw	060h
   569  0943  3400               	retlw	0
   570                           
   571  0944  3400               	retlw	0
   572  0945  3400               	retlw	0
   573                           
   574  0946  34FF               	retlw	0FFh
   575  0947  3400               	retlw	0
   576                           
   577  0948  3480               	retlw	080h
   578  0949  3400               	retlw	0
   579                           
   580  094A  34FF               	retlw	0FFh
   581  094B  3400               	retlw	0
   582                           
   583  094C  3480               	retlw	080h
   584  094D  3400               	retlw	0
   585                           
   586  094E  3460               	retlw	060h
   587  094F  3400               	retlw	0
   588                           
   589  0950  3400               	retlw	0
   590  0951  3400               	retlw	0
   591                           
   592  0952  3418               	retlw	018h
   593  0953  3400               	retlw	0
   594                           
   595  0954  3400               	retlw	0
   596  0955  3400               	retlw	0
   597                           
   598  0956  3406               	retlw	06h
   599  0957  3400               	retlw	0
   600                           
   601  0958  3400               	retlw	0
   602  0959  3400               	retlw	0
   603                           
   604  095A  3401               	retlw	01h
   605  095B  3400               	retlw	0
   606                           
   607  095C  3480               	retlw	080h
   608  095D  3400               	retlw	0
   609                           
   610  095E  34FF               	retlw	0FFh
   611  095F  3400               	retlw	0
   612                           
   613  0960  3480               	retlw	080h
   614  0961  3400               	retlw	0
   615                           
   616  0962  343E               	retlw	03Eh
   617  0963  3400               	retlw	0
   618                           
   619  0964  3400               	retlw	0
   620  0965  3400               	retlw	0
   621                           
   622  0966  3442               	retlw	042h
   623  0967  3400               	retlw	0
   624                           
   625  0968  3400               	retlw	0
   626  0969  3400               	retlw	0
   627                           
   628  096A  3480               	retlw	080h
   629  096B  3400               	retlw	0
   630                           
   631  096C  3480               	retlw	080h
   632  096D  3400               	retlw	0
   633                           
   634  096E  3480               	retlw	080h
   635  096F  3400               	retlw	0
   636                           
   637  0970  3480               	retlw	080h
   638  0971  3400               	retlw	0
   639                           
   640  0972  3442               	retlw	042h
   641  0973  3400               	retlw	0
   642                           
   643  0974  3400               	retlw	0
   644  0975  3400               	retlw	0
   645                           
   646  0976  343E               	retlw	03Eh
   647  0977  3400               	retlw	0
   648                           
   649  0978  3400               	retlw	0
   650  0979  3400               	retlw	0
   651                           
   652  097A  34FF               	retlw	0FFh
   653  097B  3400               	retlw	0
   654                           
   655  097C  3480               	retlw	080h
   656  097D  3400               	retlw	0
   657                           
   658  097E  3488               	retlw	088h
   659  097F  3400               	retlw	0
   660                           
   661  0980  3400               	retlw	0
   662  0981  3400               	retlw	0
   663                           
   664  0982  3488               	retlw	088h
   665  0983  3400               	retlw	0
   666                           
   667  0984  3400               	retlw	0
   668  0985  3400               	retlw	0
   669                           
   670  0986  3488               	retlw	088h
   671  0987  3400               	retlw	0
   672                           
   673  0988  3400               	retlw	0
   674  0989  3400               	retlw	0
   675                           
   676  098A  3488               	retlw	088h
   677  098B  3400               	retlw	0
   678                           
   679  098C  3400               	retlw	0
   680  098D  3400               	retlw	0
   681                           
   682  098E  3470               	retlw	070h
   683  098F  3400               	retlw	0
   684                           
   685  0990  3400               	retlw	0
   686  0991  3400               	retlw	0
   687                           
   688  0992  343E               	retlw	03Eh
   689  0993  3400               	retlw	0
   690                           
   691  0994  3400               	retlw	0
   692  0995  3400               	retlw	0
   693                           
   694  0996  3441               	retlw	041h
   695  0997  3400               	retlw	0
   696                           
   697  0998  3400               	retlw	0
   698  0999  3400               	retlw	0
   699                           
   700  099A  3480               	retlw	080h
   701  099B  3400               	retlw	0
   702                           
   703  099C  3480               	retlw	080h
   704  099D  3400               	retlw	0
   705                           
   706  099E  3482               	retlw	082h
   707  099F  3400               	retlw	0
   708                           
   709  09A0  3480               	retlw	080h
   710  09A1  3400               	retlw	0
   711                           
   712  09A2  3441               	retlw	041h
   713  09A3  3400               	retlw	0
   714                           
   715  09A4  3400               	retlw	0
   716  09A5  3400               	retlw	0
   717                           
   718  09A6  343E               	retlw	03Eh
   719  09A7  3400               	retlw	0
   720                           
   721  09A8  3480               	retlw	080h
   722  09A9  3400               	retlw	0
   723                           
   724  09AA  34FF               	retlw	0FFh
   725  09AB  3400               	retlw	0
   726                           
   727  09AC  3480               	retlw	080h
   728  09AD  3400               	retlw	0
   729                           
   730  09AE  3488               	retlw	088h
   731  09AF  3400               	retlw	0
   732                           
   733  09B0  3400               	retlw	0
   734  09B1  3400               	retlw	0
   735                           
   736  09B2  3488               	retlw	088h
   737  09B3  3400               	retlw	0
   738                           
   739  09B4  3400               	retlw	0
   740  09B5  3400               	retlw	0
   741                           
   742  09B6  348C               	retlw	08Ch
   743  09B7  3400               	retlw	0
   744                           
   745  09B8  3400               	retlw	0
   746  09B9  3400               	retlw	0
   747                           
   748  09BA  348A               	retlw	08Ah
   749  09BB  3400               	retlw	0
   750                           
   751  09BC  3400               	retlw	0
   752  09BD  3400               	retlw	0
   753                           
   754  09BE  3471               	retlw	071h
   755  09BF  3400               	retlw	0
   756                           
   757  09C0  3480               	retlw	080h
   758  09C1  3400               	retlw	0
   759                           
   760  09C2  3471               	retlw	071h
   761  09C3  3400               	retlw	0
   762                           
   763  09C4  3400               	retlw	0
   764  09C5  3400               	retlw	0
   765                           
   766  09C6  3488               	retlw	088h
   767  09C7  3400               	retlw	0
   768                           
   769  09C8  3480               	retlw	080h
   770  09C9  3400               	retlw	0
   771                           
   772  09CA  3488               	retlw	088h
   773  09CB  3400               	retlw	0
   774                           
   775  09CC  3480               	retlw	080h
   776  09CD  3400               	retlw	0
   777                           
   778  09CE  3488               	retlw	088h
   779  09CF  3400               	retlw	0
   780                           
   781  09D0  3480               	retlw	080h
   782  09D1  3400               	retlw	0
   783                           
   784  09D2  3488               	retlw	088h
   785  09D3  3400               	retlw	0
   786                           
   787  09D4  3480               	retlw	080h
   788  09D5  3400               	retlw	0
   789                           
   790  09D6  3447               	retlw	047h
   791  09D7  3400               	retlw	0
   792                           
   793  09D8  3400               	retlw	0
   794  09D9  3400               	retlw	0
   795                           
   796  09DA  3480               	retlw	080h
   797  09DB  3400               	retlw	0
   798                           
   799  09DC  3400               	retlw	0
   800  09DD  3400               	retlw	0
   801                           
   802  09DE  3480               	retlw	080h
   803  09DF  3400               	retlw	0
   804                           
   805  09E0  3400               	retlw	0
   806  09E1  3400               	retlw	0
   807                           
   808  09E2  34FF               	retlw	0FFh
   809  09E3  3400               	retlw	0
   810                           
   811  09E4  3480               	retlw	080h
   812  09E5  3400               	retlw	0
   813                           
   814  09E6  3480               	retlw	080h
   815  09E7  3400               	retlw	0
   816                           
   817  09E8  3400               	retlw	0
   818  09E9  3400               	retlw	0
   819                           
   820  09EA  3480               	retlw	080h
   821  09EB  3400               	retlw	0
   822                           
   823  09EC  3400               	retlw	0
   824  09ED  3400               	retlw	0
   825                           
   826  09EE  3400               	retlw	0
   827  09EF  3400               	retlw	0
   828                           
   829  09F0  3400               	retlw	0
   830  09F1  3400               	retlw	0
   831                           
   832  09F2  34FF               	retlw	0FFh
   833  09F3  3400               	retlw	0
   834                           
   835  09F4  3400               	retlw	0
   836  09F5  3400               	retlw	0
   837                           
   838  09F6  3400               	retlw	0
   839  09F7  3400               	retlw	0
   840                           
   841  09F8  3480               	retlw	080h
   842  09F9  3400               	retlw	0
   843                           
   844  09FA  3400               	retlw	0
   845  09FB  3400               	retlw	0
   846                           
   847  09FC  3480               	retlw	080h
   848  09FD  3400               	retlw	0
   849                           
   850  09FE  3400               	retlw	0
   851  09FF  3400               	retlw	0
   852                           
   853  0A00  3480               	retlw	080h
   854  0A01  3400               	retlw	0
   855                           
   856  0A02  3400               	retlw	0
   857  0A03  3400               	retlw	0
   858                           
   859  0A04  3480               	retlw	080h
   860  0A05  3400               	retlw	0
   861                           
   862  0A06  34FF               	retlw	0FFh
   863  0A07  3400               	retlw	0
   864                           
   865  0A08  3400               	retlw	0
   866  0A09  3400               	retlw	0
   867                           
   868  0A0A  34FC               	retlw	0FCh
   869  0A0B  3400               	retlw	0
   870                           
   871  0A0C  3400               	retlw	0
   872  0A0D  3400               	retlw	0
   873                           
   874  0A0E  3403               	retlw	03h
   875  0A0F  3400               	retlw	0
   876                           
   877  0A10  3400               	retlw	0
   878  0A11  3400               	retlw	0
   879                           
   880  0A12  3400               	retlw	0
   881  0A13  3400               	retlw	0
   882                           
   883  0A14  3480               	retlw	080h
   884  0A15  3400               	retlw	0
   885                           
   886  0A16  3400               	retlw	0
   887  0A17  3400               	retlw	0
   888                           
   889  0A18  3480               	retlw	080h
   890  0A19  3400               	retlw	0
   891                           
   892  0A1A  3403               	retlw	03h
   893  0A1B  3400               	retlw	0
   894                           
   895  0A1C  3400               	retlw	0
   896  0A1D  3400               	retlw	0
   897                           
   898  0A1E  34FC               	retlw	0FCh
   899  0A1F  3400               	retlw	0
   900                           
   901  0A20  3400               	retlw	0
   902  0A21  3400               	retlw	0
   903                           
   904  0A22  34FF               	retlw	0FFh
   905  0A23  3400               	retlw	0
   906                           
   907  0A24  3400               	retlw	0
   908  0A25  3400               	retlw	0
   909                           
   910  0A26  3400               	retlw	0
   911  0A27  3400               	retlw	0
   912                           
   913  0A28  3480               	retlw	080h
   914  0A29  3400               	retlw	0
   915                           
   916  0A2A  3401               	retlw	01h
   917  0A2B  3400               	retlw	0
   918                           
   919  0A2C  3400               	retlw	0
   920  0A2D  3400               	retlw	0
   921                           
   922  0A2E  3401               	retlw	01h
   923  0A2F  3400               	retlw	0
   924                           
   925  0A30  3400               	retlw	0
   926  0A31  3400               	retlw	0
   927                           
   928  0A32  3400               	retlw	0
   929  0A33  3400               	retlw	0
   930                           
   931  0A34  3480               	retlw	080h
   932  0A35  3400               	retlw	0
   933                           
   934  0A36  34FF               	retlw	0FFh
   935  0A37  3400               	retlw	0
   936                           
   937  0A38  3400               	retlw	0
   938  0A39  3400               	retlw	0
   939                           
   940  0A3A  34C1               	retlw	0C1h
   941  0A3B  3400               	retlw	0
   942                           
   943  0A3C  3480               	retlw	080h
   944  0A3D  3400               	retlw	0
   945                           
   946  0A3E  3436               	retlw	036h
   947  0A3F  3400               	retlw	0
   948                           
   949  0A40  3400               	retlw	0
   950  0A41  3400               	retlw	0
   951                           
   952  0A42  3408               	retlw	08h
   953  0A43  3400               	retlw	0
   954                           
   955  0A44  3400               	retlw	0
   956  0A45  3400               	retlw	0
   957                           
   958  0A46  3408               	retlw	08h
   959  0A47  3400               	retlw	0
   960                           
   961  0A48  3400               	retlw	0
   962  0A49  3400               	retlw	0
   963                           
   964  0A4A  3436               	retlw	036h
   965  0A4B  3400               	retlw	0
   966                           
   967  0A4C  3400               	retlw	0
   968  0A4D  3400               	retlw	0
   969                           
   970  0A4E  34C1               	retlw	0C1h
   971  0A4F  3400               	retlw	0
   972                           
   973  0A50  3480               	retlw	080h
   974  0A51  3400               	retlw	0
   975                           
   976  0A52  34C0               	retlw	0C0h
   977  0A53  3400               	retlw	0
   978                           
   979  0A54  3400               	retlw	0
   980  0A55  3400               	retlw	0
   981                           
   982  0A56  3430               	retlw	030h
   983  0A57  3400               	retlw	0
   984                           
   985  0A58  3400               	retlw	0
   986  0A59  3400               	retlw	0
   987                           
   988  0A5A  340F               	retlw	0Fh
   989  0A5B  3400               	retlw	0
   990                           
   991  0A5C  3480               	retlw	080h
   992  0A5D  3400               	retlw	0
   993                           
   994  0A5E  3430               	retlw	030h
   995  0A5F  3400               	retlw	0
   996                           
   997  0A60  3400               	retlw	0
   998  0A61  3400               	retlw	0
   999                           
  1000  0A62  34C0               	retlw	0C0h
  1001  0A63  3400               	retlw	0
  1002                           
  1003  0A64  3400               	retlw	0
  1004  0A65  3400               	retlw	0
  1005                           
  1006  0A66  3400               	retlw	0
  1007  0A67  3400               	retlw	0
  1008  0A68  3400               	retlw	0
  1009  0A69  3400               	retlw	0
  1010  0A6A  3481               	retlw	081h
  1011  0A6B  3400               	retlw	0
  1012                           
  1013  0A6C  3480               	retlw	080h
  1014  0A6D  3400               	retlw	0
  1015                           
  1016  0A6E  3482               	retlw	082h
  1017  0A6F  3400               	retlw	0
  1018                           
  1019  0A70  3480               	retlw	080h
  1020  0A71  3400               	retlw	0
  1021                           
  1022  0A72  348C               	retlw	08Ch
  1023  0A73  3400               	retlw	0
  1024                           
  1025  0A74  3480               	retlw	080h
  1026  0A75  3400               	retlw	0
  1027                           
  1028  0A76  3498               	retlw	098h
  1029  0A77  3400               	retlw	0
  1030                           
  1031  0A78  3480               	retlw	080h
  1032  0A79  3400               	retlw	0
  1033                           
  1034  0A7A  34A0               	retlw	0A0h
  1035  0A7B  3400               	retlw	0
  1036                           
  1037  0A7C  3480               	retlw	080h
  1038  0A7D  3400               	retlw	0
  1039                           
  1040  0A7E  34C0               	retlw	0C0h
  1041  0A7F  3400               	retlw	0
  1042                           
  1043  0A80  3480               	retlw	080h
  1044  0A81  3400               	retlw	0
  1045                           
  1046                           	global	_column
  1047                           psect	stringtext
  1048                           	file	"LED_Ticker.c"
  1049                           	line	28
  1050  0A82                     _column:
  1051  0A82  3400               	retlw	0
  1052  0A83  3400               	retlw	0
  1053                           
  1054  0A84  3400               	retlw	0
  1055  0A85  3400               	retlw	0
  1056                           
  1057  0A86  3400               	retlw	0
  1058  0A87  3400               	retlw	0
  1059                           
  1060  0A88  3400               	retlw	0
  1061  0A89  3400               	retlw	0
  1062                           
  1063  0A8A  3400               	retlw	0
  1064  0A8B  3400               	retlw	0
  1065                           
  1066  0A8C  3400               	retlw	0
  1067  0A8D  3400               	retlw	0
  1068                           
  1069  0A8E  34F0               	retlw	0F0h
  1070  0A8F  3400               	retlw	0
  1071                           
  1072  0A90  34E0               	retlw	0E0h
  1073  0A91  3400               	retlw	0
  1074                           
  1075  0A92  34D0               	retlw	0D0h
  1076  0A93  3400               	retlw	0
  1077                           
  1078  0A94  34C0               	retlw	0C0h
  1079  0A95  3400               	retlw	0
  1080                           
  1081  0A96  34B0               	retlw	0B0h
  1082  0A97  3400               	retlw	0
  1083                           
  1084  0A98  34A0               	retlw	0A0h
  1085  0A99  3400               	retlw	0
  1086                           
  1087  0A9A  3490               	retlw	090h
  1088  0A9B  3400               	retlw	0
  1089                           
  1090  0A9C  3480               	retlw	080h
  1091  0A9D  3400               	retlw	0
  1092                           
  1093  0A9E  3470               	retlw	070h
  1094  0A9F  3400               	retlw	0
  1095                           
  1096  0AA0  3460               	retlw	060h
  1097  0AA1  3400               	retlw	0
  1098                           
  1099  0AA2  3450               	retlw	050h
  1100  0AA3  3400               	retlw	0
  1101                           
  1102  0AA4  3440               	retlw	040h
  1103  0AA5  3400               	retlw	0
  1104                           
  1105  0AA6  3430               	retlw	030h
  1106  0AA7  3400               	retlw	0
  1107                           
  1108  0AA8  3420               	retlw	020h
  1109  0AA9  3400               	retlw	0
  1110                           
  1111  0AAA  3410               	retlw	010h
  1112  0AAB  3400               	retlw	0
  1113                           
  1114  0AAC  34F0               	retlw	0F0h
  1115  0AAD  3400               	retlw	0
  1116                           
  1117  0AAE  34E0               	retlw	0E0h
  1118  0AAF  3400               	retlw	0
  1119                           
  1120  0AB0  34D0               	retlw	0D0h
  1121  0AB1  3400               	retlw	0
  1122                           
  1123  0AB2  34C0               	retlw	0C0h
  1124  0AB3  3400               	retlw	0
  1125                           
  1126  0AB4  34B0               	retlw	0B0h
  1127  0AB5  3400               	retlw	0
  1128                           
  1129  0AB6  34A0               	retlw	0A0h
  1130  0AB7  3400               	retlw	0
  1131                           
  1132  0AB8  3490               	retlw	090h
  1133  0AB9  3400               	retlw	0
  1134                           
  1135  0ABA  3480               	retlw	080h
  1136  0ABB  3400               	retlw	0
  1137                           
  1138  0ABC  3470               	retlw	070h
  1139  0ABD  3400               	retlw	0
  1140                           
  1141  0ABE  3460               	retlw	060h
  1142  0ABF  3400               	retlw	0
  1143                           
  1144  0AC0  3450               	retlw	050h
  1145  0AC1  3400               	retlw	0
  1146                           
  1147  0AC2  3440               	retlw	040h
  1148  0AC3  3400               	retlw	0
  1149                           
  1150  0AC4  3430               	retlw	030h
  1151  0AC5  3400               	retlw	0
  1152                           
  1153  0AC6  3420               	retlw	020h
  1154  0AC7  3400               	retlw	0
  1155                           
  1156  0AC8  3410               	retlw	010h
  1157  0AC9  3400               	retlw	0
  1158                           
  1159  0ACA  34F0               	retlw	0F0h
  1160  0ACB  3400               	retlw	0
  1161                           
  1162  0ACC  34E0               	retlw	0E0h
  1163  0ACD  3400               	retlw	0
  1164                           
  1165  0ACE  34D0               	retlw	0D0h
  1166  0ACF  3400               	retlw	0
  1167                           
  1168  0AD0  34C0               	retlw	0C0h
  1169  0AD1  3400               	retlw	0
  1170                           
  1171  0AD2  34B0               	retlw	0B0h
  1172  0AD3  3400               	retlw	0
  1173                           
  1174  0AD4  34A0               	retlw	0A0h
  1175  0AD5  3400               	retlw	0
  1176                           
  1177  0AD6  3490               	retlw	090h
  1178  0AD7  3400               	retlw	0
  1179                           
  1180  0AD8  3480               	retlw	080h
  1181  0AD9  3400               	retlw	0
  1182                           
  1183  0ADA  3470               	retlw	070h
  1184  0ADB  3400               	retlw	0
  1185                           
  1186  0ADC  3460               	retlw	060h
  1187  0ADD  3400               	retlw	0
  1188                           
  1189  0ADE  3450               	retlw	050h
  1190  0ADF  3400               	retlw	0
  1191                           
  1192  0AE0  3440               	retlw	040h
  1193  0AE1  3400               	retlw	0
  1194                           
  1195  0AE2  3430               	retlw	030h
  1196  0AE3  3400               	retlw	0
  1197                           
  1198  0AE4  3420               	retlw	020h
  1199  0AE5  3400               	retlw	0
  1200                           
  1201  0AE6  3410               	retlw	010h
  1202  0AE7  3400               	retlw	0
  1203                           
  1204  0AE8  34F0               	retlw	0F0h
  1205  0AE9  3400               	retlw	0
  1206                           
  1207  0AEA  34E0               	retlw	0E0h
  1208  0AEB  3400               	retlw	0
  1209                           
  1210  0AEC  34D0               	retlw	0D0h
  1211  0AED  3400               	retlw	0
  1212                           
  1213  0AEE  34C0               	retlw	0C0h
  1214  0AEF  3400               	retlw	0
  1215                           
  1216  0AF0  34B0               	retlw	0B0h
  1217  0AF1  3400               	retlw	0
  1218                           
  1219  0AF2  34A0               	retlw	0A0h
  1220  0AF3  3400               	retlw	0
  1221                           
  1222  0AF4  3490               	retlw	090h
  1223  0AF5  3400               	retlw	0
  1224                           
  1225  0AF6  3480               	retlw	080h
  1226  0AF7  3400               	retlw	0
  1227                           
  1228  0AF8  3470               	retlw	070h
  1229  0AF9  3400               	retlw	0
  1230                           
  1231  0AFA  3460               	retlw	060h
  1232  0AFB  3400               	retlw	0
  1233                           
  1234  0AFC  3450               	retlw	050h
  1235  0AFD  3400               	retlw	0
  1236                           
  1237  0AFE  3440               	retlw	040h
  1238  0AFF  3400               	retlw	0
  1239                           
  1240  0B00  3430               	retlw	030h
  1241  0B01  3400               	retlw	0
  1242                           
  1243  0B02  3420               	retlw	020h
  1244  0B03  3400               	retlw	0
  1245                           
  1246  0B04  3410               	retlw	010h
  1247  0B05  3400               	retlw	0
  1248                           
  1249  0B06  34F0               	retlw	0F0h
  1250  0B07  3400               	retlw	0
  1251                           
  1252  0B08  34E0               	retlw	0E0h
  1253  0B09  3400               	retlw	0
  1254                           
  1255  0B0A  34D0               	retlw	0D0h
  1256  0B0B  3400               	retlw	0
  1257                           
  1258  0B0C  34C0               	retlw	0C0h
  1259  0B0D  3400               	retlw	0
  1260                           
  1261  0B0E  34B0               	retlw	0B0h
  1262  0B0F  3400               	retlw	0
  1263                           
  1264  0B10  34A0               	retlw	0A0h
  1265  0B11  3400               	retlw	0
  1266                           
  1267  0B12  3490               	retlw	090h
  1268  0B13  3400               	retlw	0
  1269                           
  1270  0B14  3480               	retlw	080h
  1271  0B15  3400               	retlw	0
  1272                           
  1273  0B16  3470               	retlw	070h
  1274  0B17  3400               	retlw	0
  1275                           
  1276  0B18  3460               	retlw	060h
  1277  0B19  3400               	retlw	0
  1278                           
  1279  0B1A  3450               	retlw	050h
  1280  0B1B  3400               	retlw	0
  1281                           
  1282  0B1C  3440               	retlw	040h
  1283  0B1D  3400               	retlw	0
  1284                           
  1285  0B1E  3430               	retlw	030h
  1286  0B1F  3400               	retlw	0
  1287                           
  1288  0B20  3420               	retlw	020h
  1289  0B21  3400               	retlw	0
  1290                           
  1291  0B22  3410               	retlw	010h
  1292  0B23  3400               	retlw	0
  1293                           
  1294  0B24  34F0               	retlw	0F0h
  1295  0B25  3400               	retlw	0
  1296                           
  1297  0B26  34E0               	retlw	0E0h
  1298  0B27  3400               	retlw	0
  1299                           
  1300  0B28  34D0               	retlw	0D0h
  1301  0B29  3400               	retlw	0
  1302                           
  1303  0B2A  34C0               	retlw	0C0h
  1304  0B2B  3400               	retlw	0
  1305                           
  1306  0B2C  34B0               	retlw	0B0h
  1307  0B2D  3400               	retlw	0
  1308                           
  1309  0B2E  34A0               	retlw	0A0h
  1310  0B2F  3400               	retlw	0
  1311                           
  1312  0B30  3490               	retlw	090h
  1313  0B31  3400               	retlw	0
  1314                           
  1315  0B32  3480               	retlw	080h
  1316  0B33  3400               	retlw	0
  1317                           
  1318  0B34  3470               	retlw	070h
  1319  0B35  3400               	retlw	0
  1320                           
  1321  0B36  3460               	retlw	060h
  1322  0B37  3400               	retlw	0
  1323                           
  1324  0B38  3450               	retlw	050h
  1325  0B39  3400               	retlw	0
  1326                           
  1327  0B3A  3440               	retlw	040h
  1328  0B3B  3400               	retlw	0
  1329                           
  1330  0B3C  3430               	retlw	030h
  1331  0B3D  3400               	retlw	0
  1332                           
  1333  0B3E  3420               	retlw	020h
  1334  0B3F  3400               	retlw	0
  1335                           
  1336  0B40  3410               	retlw	010h
  1337  0B41  3400               	retlw	0
  1338                           
  1339  0B42  34F0               	retlw	0F0h
  1340  0B43  3400               	retlw	0
  1341                           
  1342  0B44  34E0               	retlw	0E0h
  1343  0B45  3400               	retlw	0
  1344                           
  1345  0B46  34D0               	retlw	0D0h
  1346  0B47  3400               	retlw	0
  1347                           
  1348  0B48  34C0               	retlw	0C0h
  1349  0B49  3400               	retlw	0
  1350                           
  1351  0B4A  34B0               	retlw	0B0h
  1352  0B4B  3400               	retlw	0
  1353                           
  1354  0B4C  34A0               	retlw	0A0h
  1355  0B4D  3400               	retlw	0
  1356                           
  1357  0B4E  3490               	retlw	090h
  1358  0B4F  3400               	retlw	0
  1359                           
  1360  0B50  3480               	retlw	080h
  1361  0B51  3400               	retlw	0
  1362                           
  1363  0B52  3470               	retlw	070h
  1364  0B53  3400               	retlw	0
  1365                           
  1366  0B54  3460               	retlw	060h
  1367  0B55  3400               	retlw	0
  1368                           
  1369  0B56  3450               	retlw	050h
  1370  0B57  3400               	retlw	0
  1371                           
  1372  0B58  3440               	retlw	040h
  1373  0B59  3400               	retlw	0
  1374                           
  1375  0B5A  3430               	retlw	030h
  1376  0B5B  3400               	retlw	0
  1377                           
  1378  0B5C  3420               	retlw	020h
  1379  0B5D  3400               	retlw	0
  1380                           
  1381  0B5E  3410               	retlw	010h
  1382  0B5F  3400               	retlw	0
  1383                           
  1384  0B60  34F0               	retlw	0F0h
  1385  0B61  3400               	retlw	0
  1386                           
  1387  0B62  34E0               	retlw	0E0h
  1388  0B63  3400               	retlw	0
  1389                           
  1390  0B64  34D0               	retlw	0D0h
  1391  0B65  3400               	retlw	0
  1392                           
  1393  0B66  34C0               	retlw	0C0h
  1394  0B67  3400               	retlw	0
  1395                           
  1396  0B68  34B0               	retlw	0B0h
  1397  0B69  3400               	retlw	0
  1398                           
  1399  0B6A  34A0               	retlw	0A0h
  1400  0B6B  3400               	retlw	0
  1401                           
  1402  0B6C  3490               	retlw	090h
  1403  0B6D  3400               	retlw	0
  1404                           
  1405  0B6E  3480               	retlw	080h
  1406  0B6F  3400               	retlw	0
  1407                           
  1408  0B70  3470               	retlw	070h
  1409  0B71  3400               	retlw	0
  1410                           
  1411  0B72  3460               	retlw	060h
  1412  0B73  3400               	retlw	0
  1413                           
  1414  0B74  3450               	retlw	050h
  1415  0B75  3400               	retlw	0
  1416                           
  1417  0B76  3440               	retlw	040h
  1418  0B77  3400               	retlw	0
  1419                           
  1420  0B78  3430               	retlw	030h
  1421  0B79  3400               	retlw	0
  1422                           
  1423  0B7A  3420               	retlw	020h
  1424  0B7B  3400               	retlw	0
  1425                           
  1426  0B7C  3410               	retlw	010h
  1427  0B7D  3400               	retlw	0
  1428                           
  1429  0B7E  34F0               	retlw	0F0h
  1430  0B7F  3400               	retlw	0
  1431                           
  1432  0B80  34E0               	retlw	0E0h
  1433  0B81  3400               	retlw	0
  1434                           
  1435  0B82  34D0               	retlw	0D0h
  1436  0B83  3400               	retlw	0
  1437                           
  1438  0B84  34C0               	retlw	0C0h
  1439  0B85  3400               	retlw	0
  1440                           
  1441  0B86  34B0               	retlw	0B0h
  1442  0B87  3400               	retlw	0
  1443                           
  1444  0B88  34A0               	retlw	0A0h
  1445  0B89  3400               	retlw	0
  1446                           
  1447  0B8A  3490               	retlw	090h
  1448  0B8B  3400               	retlw	0
  1449                           
  1450  0B8C  3480               	retlw	080h
  1451  0B8D  3400               	retlw	0
  1452                           
  1453  0B8E  3470               	retlw	070h
  1454  0B8F  3400               	retlw	0
  1455                           
  1456  0B90  3460               	retlw	060h
  1457  0B91  3400               	retlw	0
  1458                           
  1459  0B92  3450               	retlw	050h
  1460  0B93  3400               	retlw	0
  1461                           
  1462  0B94  3440               	retlw	040h
  1463  0B95  3400               	retlw	0
  1464                           
  1465  0B96  3430               	retlw	030h
  1466  0B97  3400               	retlw	0
  1467                           
  1468  0B98  3420               	retlw	020h
  1469  0B99  3400               	retlw	0
  1470                           
  1471  0B9A  3410               	retlw	010h
  1472  0B9B  3400               	retlw	0
  1473                           
  1474  0B9C  34F0               	retlw	0F0h
  1475  0B9D  3400               	retlw	0
  1476                           
  1477  0B9E  34E0               	retlw	0E0h
  1478  0B9F  3400               	retlw	0
  1479                           
  1480  0BA0  34D0               	retlw	0D0h
  1481  0BA1  3400               	retlw	0
  1482                           
  1483  0BA2  34C0               	retlw	0C0h
  1484  0BA3  3400               	retlw	0
  1485                           
  1486  0BA4  34B0               	retlw	0B0h
  1487  0BA5  3400               	retlw	0
  1488                           
  1489  0BA6  34A0               	retlw	0A0h
  1490  0BA7  3400               	retlw	0
  1491                           
  1492  0BA8  3490               	retlw	090h
  1493  0BA9  3400               	retlw	0
  1494                           
  1495  0BAA  3480               	retlw	080h
  1496  0BAB  3400               	retlw	0
  1497                           
  1498  0BAC  3470               	retlw	070h
  1499  0BAD  3400               	retlw	0
  1500                           
  1501  0BAE  3460               	retlw	060h
  1502  0BAF  3400               	retlw	0
  1503                           
  1504  0BB0  3450               	retlw	050h
  1505  0BB1  3400               	retlw	0
  1506                           
  1507  0BB2  3440               	retlw	040h
  1508  0BB3  3400               	retlw	0
  1509                           
  1510  0BB4  3430               	retlw	030h
  1511  0BB5  3400               	retlw	0
  1512                           
  1513  0BB6  3420               	retlw	020h
  1514  0BB7  3400               	retlw	0
  1515                           
  1516  0BB8  3410               	retlw	010h
  1517  0BB9  3400               	retlw	0
  1518                           
  1519  0BBA  34F0               	retlw	0F0h
  1520  0BBB  3400               	retlw	0
  1521                           
  1522  0BBC  34E0               	retlw	0E0h
  1523  0BBD  3400               	retlw	0
  1524                           
  1525  0BBE  34D0               	retlw	0D0h
  1526  0BBF  3400               	retlw	0
  1527                           
  1528  0BC0  34C0               	retlw	0C0h
  1529  0BC1  3400               	retlw	0
  1530                           
  1531  0BC2  34B0               	retlw	0B0h
  1532  0BC3  3400               	retlw	0
  1533                           
  1534  0BC4  34A0               	retlw	0A0h
  1535  0BC5  3400               	retlw	0
  1536                           
  1537  0BC6  3490               	retlw	090h
  1538  0BC7  3400               	retlw	0
  1539                           
  1540  0BC8  3480               	retlw	080h
  1541  0BC9  3400               	retlw	0
  1542                           
  1543  0BCA  3470               	retlw	070h
  1544  0BCB  3400               	retlw	0
  1545                           
  1546  0BCC  3460               	retlw	060h
  1547  0BCD  3400               	retlw	0
  1548                           
  1549  0BCE  3450               	retlw	050h
  1550  0BCF  3400               	retlw	0
  1551                           
  1552  0BD0  3440               	retlw	040h
  1553  0BD1  3400               	retlw	0
  1554                           
  1555  0BD2  3430               	retlw	030h
  1556  0BD3  3400               	retlw	0
  1557                           
  1558  0BD4  3420               	retlw	020h
  1559  0BD5  3400               	retlw	0
  1560                           
  1561  0BD6  3410               	retlw	010h
  1562  0BD7  3400               	retlw	0
  1563                           
  1564                           	global	_characters
  1565                           	global	_column
  1566                           	global	_index
  1567                           psect	nvBANK0,class=BANK0,space=1
  1568                           global __pnvBANK0
  1569  0054                     __pnvBANK0:
  1570  0054                     _index:
  1571  0054                            ds      2
  1572                           
  1573                           	global	_PORTA
  1574  0005                     _PORTA	set	5
  1575                           	global	_PORTB
  1576  0006                     _PORTB	set	6
  1577                           	global	_PORTC
  1578  0007                     _PORTC	set	7
  1579                           	global	_PORTD
  1580  0008                     _PORTD	set	8
  1581                           	global	_PORTE
  1582  0009                     _PORTE	set	9
  1583                           	global	_CARRY
  1584  0018                     _CARRY	set	24
  1585                           	global	_GIE
  1586  005F                     _GIE	set	95
  1587                           	global	_TRISA
  1588  0085                     _TRISA	set	133
  1589                           	global	_TRISB
  1590  0086                     _TRISB	set	134
  1591                           	global	_TRISC
  1592  0087                     _TRISC	set	135
  1593                           	global	_TRISD
  1594  0088                     _TRISD	set	136
  1595                           	global	_EEADR
  1596  010D                     _EEADR	set	269
  1597                           	global	_EEDATA
  1598  010C                     _EEDATA	set	268
  1599                           	global	_EECON1
  1600  018C                     _EECON1	set	396
  1601                           	global	_EECON2
  1602  018D                     _EECON2	set	397
  1603                           	global	_RD
  1604  0C60                     _RD	set	3168
  1605                           	global	_WR
  1606  0C61                     _WR	set	3169
  1607                           	global	_WREN
  1608  0C62                     _WREN	set	3170
  1609                           	file	"C:\Users\Home\AppData\Local\Temp\s17g."
  1610                           	line	#
  1611                           psect cinit,class=CODE,delta=2
  1612                           global start_initialization
  1613  003B                     start_initialization:
  1614                           
  1615                           psect	dataBANK0,class=BANK0,space=1
  1616                           global __pdataBANK0
  1617  0042                     __pdataBANK0:
  1618                           	file	"LED_Ticker.c"
  1619                           	line	705
  1620  0042                     main@F1286:
  1621  0042                            ds      18
  1622                           
  1623                           global btemp
  1624                           psect inittext,class=CODE,delta=2
  1625                           global init_fetch,btemp
  1626                           ;	Called with low address in FSR and high address in W
  1627  005F                     init_fetch:
  1628  005F  087E               	movf btemp,w
  1629  0060  008A               	movwf pclath
  1630  0061  087F               	movf btemp+1,w
  1631  0062  0082               	movwf pc
  1632                           global init_ram
  1633                           ;Called with:
  1634                           ;	high address of idata address in btemp 
  1635                           ;	low address of idata address in btemp+1 
  1636                           ;	low address of data in FSR
  1637                           ;	high address + 1 of data in btemp-1
  1638  0063                     init_ram:
  1639  0063  120A  118A  205F   	fcall init_fetch
              120A  118A         
  1640  0068  0080               	movwf indf,f
  1641  0069  0A84               	incf fsr,f
  1642  006A  0804               	movf fsr,w
  1643  006B  067D               	xorwf btemp-1,w
  1644  006C  1903               	btfsc status,2
  1645  006D  3400               	retlw 0
  1646  006E  0AFF               	incf btemp+1,f
  1647  006F  1903               	btfsc status,2
  1648  0070  0AFE               	incf btemp,f
  1649  0071  2863               	goto init_ram
  1650                           ; Initialize objects allocated to BANK0
  1651                           psect cinit,class=CODE,delta=2
  1652                           global init_ram, __pidataBANK0
  1653  003B  1383               	bcf	status, 7	;select IRP bank0
  1654  003C  3054               	movlw low(__pdataBANK0+18)
  1655  003D  00FD               	movwf btemp-1,f
  1656  003E  3000               	movlw high(__pidataBANK0)
  1657  003F  00FE               	movwf btemp,f
  1658  0040  304D               	movlw low(__pidataBANK0)
  1659  0041  00FF               	movwf btemp+1,f
  1660  0042  3042               	movlw low(__pdataBANK0)
  1661  0043  0084               	movwf fsr,f
  1662  0044  120A  118A  2063   	fcall init_ram
              120A  118A         
  1663                           psect cinit,class=CODE,delta=2
  1664                           global end_of_initialization
  1665                           
  1666                           ;End of C runtime variable initialization code
  1667                           
  1668  0049                     end_of_initialization:
  1669  0049  0183               clrf status
  1670  004A  120A  158A  2EFA   ljmp _main	;jump to C main() function
  1671                           psect	cstackCOMMON,class=COMMON,space=1
  1672                           global __pcstackCOMMON
  1673  0070                     __pcstackCOMMON:
  1674                           	global	?_init_ports
  1675  0070                     ?_init_ports:	; 0 bytes @ 0x0
  1676                           	global	??_init_ports
  1677  0070                     ??_init_ports:	; 0 bytes @ 0x0
  1678                           	global	?_main
  1679  0070                     ?_main:	; 0 bytes @ 0x0
  1680                           	global	?___wmul
  1681  0070                     ?___wmul:	; 2 bytes @ 0x0
  1682                           	global	___wmul@multiplier
  1683  0070                     ___wmul@multiplier:	; 2 bytes @ 0x0
  1684  0070                     	ds	2
  1685                           	global	___wmul@multiplicand
  1686  0072                     ___wmul@multiplicand:	; 2 bytes @ 0x2
  1687  0072                     	ds	2
  1688                           	global	??___wmul
  1689  0074                     ??___wmul:	; 0 bytes @ 0x4
  1690                           	global	___wmul@product
  1691  0074                     ___wmul@product:	; 2 bytes @ 0x4
  1692  0074                     	ds	2
  1693                           	global	?_display
  1694  0076                     ?_display:	; 0 bytes @ 0x6
  1695                           	global	display@charNum
  1696  0076                     display@charNum:	; 2 bytes @ 0x6
  1697  0076                     	ds	2
  1698                           	global	display@start
  1699  0078                     display@start:	; 2 bytes @ 0x8
  1700  0078                     	ds	2
  1701                           	global	??_display
  1702  007A                     ??_display:	; 0 bytes @ 0xA
  1703  007A                     	ds	3
  1704                           psect	cstackBANK0,class=BANK0,space=1
  1705                           global __pcstackBANK0
  1706  0020                     __pcstackBANK0:
  1707                           	global	display@i
  1708  0020                     display@i:	; 2 bytes @ 0x0
  1709  0020                     	ds	2
  1710                           	global	??_main
  1711  0022                     ??_main:	; 0 bytes @ 0x2
  1712  0022                     	ds	4
  1713                           	global	main@streamChars
  1714  0026                     main@streamChars:	; 18 bytes @ 0x6
  1715  0026                     	ds	18
  1716                           	global	main@j
  1717  0038                     main@j:	; 2 bytes @ 0x18
  1718  0038                     	ds	2
  1719                           	global	main@counter
  1720  003A                     main@counter:	; 2 bytes @ 0x1A
  1721  003A                     	ds	2
  1722                           	global	main@numChars
  1723  003C                     main@numChars:	; 2 bytes @ 0x1C
  1724  003C                     	ds	2
  1725                           	global	main@offset
  1726  003E                     main@offset:	; 2 bytes @ 0x1E
  1727  003E                     	ds	2
  1728                           	global	main@i
  1729  0040                     main@i:	; 2 bytes @ 0x20
  1730  0040                     	ds	2
  1731 ;;Data sizes: Strings 0, constant 966, data 18, bss 0, persistent 2 stack 0
  1732 ;;Auto spaces:   Size  Autos    Used
  1733 ;; COMMON          14     13      13
  1734 ;; BANK0           80     34      54
  1735 ;; BANK1           80      0       0
  1736 ;; BANK3           96      0       0
  1737 ;; BANK2           96      0       0
  1738                           
  1739 ;;
  1740 ;; Pointer list with targets:
  1741                           
  1742 ;; ?___wmul	unsigned int  size(1) Largest target is 0
  1743 ;;
  1744                           
  1745                           
  1746 ;;
  1747 ;; Critical Paths under _main in COMMON
  1748 ;;
  1749 ;;   _main->_display
  1750 ;;   _display->___wmul
  1751 ;;
  1752 ;; Critical Paths under _main in BANK0
  1753 ;;
  1754 ;;   _main->_display
  1755 ;;
  1756 ;; Critical Paths under _main in BANK1
  1757 ;;
  1758 ;;   None.
  1759 ;;
  1760 ;; Critical Paths under _main in BANK3
  1761 ;;
  1762 ;;   None.
  1763 ;;
  1764 ;; Critical Paths under _main in BANK2
  1765 ;;
  1766 ;;   None.
  1767                           
  1768 ;;
  1769 ;;Main: autosize = 0, tempsize = 4, incstack = 0, save=0
  1770 ;;
  1771                           
  1772 ;;
  1773 ;;Call Graph Tables:
  1774 ;;
  1775 ;; ---------------------------------------------------------------------------------
  1776 ;; (Depth) Function   	        Calls       Base Space   Used Autos Params    Refs
  1777 ;; ---------------------------------------------------------------------------------
  1778 ;; (0) _main                                                32    32      0    2021
  1779 ;;                                              2 BANK0     32    32      0
  1780 ;;                         _init_ports
  1781 ;;                             ___wmul
  1782 ;;                            _display
  1783 ;; ---------------------------------------------------------------------------------
  1784 ;; (1) _display                                              9     5      4    1695
  1785 ;;                                              6 COMMON     7     3      4
  1786 ;;                                              0 BANK0      2     2      0
  1787 ;;                             ___wmul
  1788 ;; ---------------------------------------------------------------------------------
  1789 ;; (2) ___wmul                                               6     2      4      92
  1790 ;;                                              0 COMMON     6     2      4
  1791 ;; ---------------------------------------------------------------------------------
  1792 ;; (1) _init_ports                                           0     0      0       0
  1793 ;; ---------------------------------------------------------------------------------
  1794 ;; Estimated maximum stack depth 2
  1795 ;; ---------------------------------------------------------------------------------
  1796                           
  1797 ;; Call Graph Graphs:
  1798                           
  1799 ;; _main (ROOT)
  1800 ;;   _init_ports
  1801 ;;   ___wmul
  1802 ;;   _display
  1803 ;;     ___wmul
  1804 ;;
  1805                           
  1806 ;; Address spaces:
  1807                           
  1808 ;;Name               Size   Autos  Total    Cost      Usage
  1809 ;;BANK3               60      0       0       9        0.0%
  1810 ;;BITBANK3            60      0       0       8        0.0%
  1811 ;;SFR3                 0      0       0       4        0.0%
  1812 ;;BITSFR3              0      0       0       4        0.0%
  1813 ;;BANK2               60      0       0      11        0.0%
  1814 ;;BITBANK2            60      0       0      10        0.0%
  1815 ;;SFR2                 0      0       0       5        0.0%
  1816 ;;BITSFR2              0      0       0       5        0.0%
  1817 ;;SFR1                 0      0       0       2        0.0%
  1818 ;;BITSFR1              0      0       0       2        0.0%
  1819 ;;BANK1               50      0       0       7        0.0%
  1820 ;;BITBANK1            50      0       0       6        0.0%
  1821 ;;CODE                 0      0       0       0        0.0%
  1822 ;;DATA                 0      0      45      12        0.0%
  1823 ;;ABS                  0      0      43       3        0.0%
  1824 ;;NULL                 0      0       0       0        0.0%
  1825 ;;STACK                0      0       2       2        0.0%
  1826 ;;BANK0               50     22      36       5       67.5%
  1827 ;;BITBANK0            50      0       0       4        0.0%
  1828 ;;SFR0                 0      0       0       1        0.0%
  1829 ;;BITSFR0              0      0       0       1        0.0%
  1830 ;;COMMON               E      D       D       1       92.9%
  1831 ;;BITCOMMON            E      0       0       0        0.0%
  1832 ;;EEDATA             100      0       0       0        0.0%
  1833                           
  1834                           	global	_main
  1835                           psect	maintext,global,class=CODE,delta=2
  1836                           global __pmaintext
  1837  0EFA                     __pmaintext:
  1838                           
  1839 ;; *************** function _main *****************
  1840 ;; Defined at:
  1841 ;;		line 702 in file "LED_Ticker.c"
  1842 ;; Parameters:    Size  Location     Type
  1843 ;;		None
  1844 ;; Auto vars:     Size  Location     Type
  1845 ;;  j               2   24[BANK0 ] int 
  1846 ;;  i               2   32[BANK0 ] int 
  1847 ;;  streamChars    18    6[BANK0 ] int [9]
  1848 ;;  offset          2   30[BANK0 ] int 
  1849 ;;  numChars        2   28[BANK0 ] int 
  1850 ;;  counter         2   26[BANK0 ] int 
  1851 ;; Return value:  Size  Location     Type
  1852 ;;		None               void
  1853 ;; Registers used:
  1854 ;;		wreg, fsr0l, fsr0h, status,2, status,0, btemp+1, pclath, cstack
  1855 ;; Tracked objects:
  1856 ;;		On entry : 17F/0
  1857 ;;		On exit  : 0/0
  1858 ;;		Unchanged: 0/0
  1859 ;; Data sizes:     COMMON   BANK0   BANK1   BANK3   BANK2
  1860 ;;      Params:         0       0       0       0       0
  1861 ;;      Locals:         0      28       0       0       0
  1862 ;;      Temps:          0       4       0       0       0
  1863 ;;      Totals:         0      32       0       0       0
  1864 ;;Total ram usage:       32 bytes
  1865 ;; Hardware stack levels required when called:    2
  1866 ;; This function calls:
  1867 ;;		_init_ports
  1868 ;;		___wmul
  1869 ;;		_display
  1870 ;; This function is called by:
  1871 ;;		Startup code after reset
  1872 ;; This function uses a non-reentrant model
  1873 ;;
  1874                           psect	maintext
  1875                           	file	"LED_Ticker.c"
  1876                           	line	702
  1877                           	global	__size_of_main
  1878  0106                     	__size_of_main	equ	__end_of_main-_main
  1879                           	
  1880  0EFA                     _main:	
  1881                           	opt	stack 6
  1882                           ; Regs used in _main: [wreg-fsr0h+status,2+status,0+btemp+1+pclath+cstack]
  1883                           	line	703
  1884                           	
  1885  0EFA                     l3592:	
  1886                           ;LED_Ticker.c: 703: int counter = 0;
  1887  0EFA  1283               	bcf	status, 5	;RP0=0, select bank0
  1888  0EFB  1303               	bcf	status, 6	;RP1=0, select bank0
  1889  0EFC  01BA               	clrf	(main@counter)
  1890  0EFD  01BB               	clrf	(main@counter+1)
  1891                           	line	704
  1892                           ;LED_Ticker.c: 704: int offset = 0;
  1893  0EFE  01BE               	clrf	(main@offset)
  1894  0EFF  01BF               	clrf	(main@offset+1)
  1895                           	line	705
  1896                           	
  1897  0F00                     l3594:	
  1898                           ;LED_Ticker.c: 705: int streamChars[9] = {1,0,11,11,18};
  1899  0F00  3026               	movlw	(main@streamChars)&0ffh
  1900  0F01  0084               	movwf	fsr0
  1901  0F02  3042               	movlw	low(main@F1286)
  1902  0F03  00A2               	movwf	(??_main+0)+0
  1903  0F04  0804               	movf	fsr0,w
  1904  0F05  00A3               	movwf	((??_main+0)+0+1)
  1905  0F06  3012               	movlw	18
  1906  0F07  00A4               	movwf	((??_main+0)+0+2)
  1907  0F08                     u3520:
  1908  0F08  0822               	movf	(??_main+0)+0,w
  1909  0F09  0084               	movwf	fsr0
  1910  0F0A  1383               	bcf	status, 7	;select IRP bank0
  1911                           	
  1912  0F0B  0800               	movf	indf,w
  1913  0F0C  00A5               	movwf	((??_main+0)+0+3)
  1914  0F0D  0AA2               	incf	(??_main+0)+0,f
  1915  0F0E  0823               	movf	((??_main+0)+0+1),w
  1916  0F0F  0084               	movwf	fsr0
  1917                           	
  1918  0F10  0825               	movf	((??_main+0)+0+3),w
  1919  0F11  0080               	movwf	indf
  1920  0F12  0AA3               	incf	((??_main+0)+0+1),f
  1921  0F13  0BA4               	decfsz	((??_main+0)+0+2),f
  1922  0F14  2F08               	goto	u3520
  1923                           	line	706
  1924                           	
  1925  0F15                     l3596:	
  1926                           ;LED_Ticker.c: 706: int numChars = 5;
  1927  0F15  3005               	movlw	low(05h)
  1928  0F16  00BC               	movwf	(main@numChars)
  1929  0F17  3000               	movlw	high(05h)
  1930  0F18  00BD               	movwf	((main@numChars))+1
  1931                           	line	707
  1932                           	
  1933  0F19                     l3598:	
  1934                           ;LED_Ticker.c: 707: init_ports();
  1935  0F19  120A  118A  2072   	fcall	_init_ports
              120A  158A         
  1936                           	line	709
  1937                           	
  1938  0F1E                     l3600:	
  1939                           ;LED_Ticker.c: 709: index = 65;
  1940  0F1E  3041               	movlw	low(041h)
  1941  0F1F  1283               	bcf	status, 5	;RP0=0, select bank0
  1942  0F20  1303               	bcf	status, 6	;RP1=0, select bank0
  1943  0F21  00D4               	movwf	(_index)
  1944  0F22  3000               	movlw	high(041h)
  1945  0F23  00D5               	movwf	((_index))+1
  1946  0F24  2F25               	goto	l3602
  1947                           	line	711
  1948                           ;LED_Ticker.c: 711: while(1){
  1949                           	
  1950  0F25                     l759:	
  1951                           	line	723
  1952                           	
  1953  0F25                     l3602:	
  1954                           ;LED_Ticker.c: 723: if(index>(-(numChars * 7)-1)){
  1955  0F25  1283               	bcf	status, 5	;RP0=0, select bank0
  1956  0F26  1303               	bcf	status, 6	;RP1=0, select bank0
  1957  0F27  083D               	movf	(main@numChars+1),w
  1958  0F28  01F1               	clrf	(?___wmul+1)
  1959  0F29  07F1               	addwf	(?___wmul+1)
  1960  0F2A  083C               	movf	(main@numChars),w
  1961  0F2B  01F0               	clrf	(?___wmul)
  1962  0F2C  07F0               	addwf	(?___wmul)
  1963                           
  1964  0F2D  3007               	movlw	low(07h)
  1965  0F2E  00F2               	movwf	0+(?___wmul)+02h
  1966  0F2F  3000               	movlw	high(07h)
  1967  0F30  00F3               	movwf	(0+(?___wmul)+02h)+1
  1968  0F31  120A  118A  208B   	fcall	___wmul
              120A  158A         
  1969  0F36  0870               	movf	(0+(?___wmul)),w
  1970  0F37  3E01               	addlw	low(01h)
  1971  0F38  1283               	bcf	status, 5	;RP0=0, select bank0
  1972  0F39  1303               	bcf	status, 6	;RP1=0, select bank0
  1973  0F3A  00A2               	movwf	(??_main+0)+0
  1974  0F3B  0871               	movf	(1+(?___wmul)),w
  1975  0F3C  1803               	skipnc
  1976  0F3D  3E01               	addlw	1
  1977  0F3E  3E00               	addlw	high(01h)
  1978  0F3F  00A3               	movwf	1+(??_main+0)+0
  1979  0F40  09A2               	comf	(??_main+0)+0,f
  1980  0F41  09A3               	comf	(??_main+0)+1,f
  1981  0F42  0AA2               	incf	(??_main+0)+0,f
  1982  0F43  1903               	skipnz
  1983  0F44  0AA3               	incf	(??_main+0)+1,f
  1984  0F45  0823               	movf	1+(??_main+0)+0,w
  1985  0F46  3A80               	xorlw	80h
  1986  0F47  00A4               	movwf	(??_main+2)+0
  1987  0F48  0855               	movf	(_index+1),w
  1988  0F49  3A80               	xorlw	80h
  1989  0F4A  0224               	subwf	(??_main+2)+0,w
  1990  0F4B  1D03               	skipz
  1991  0F4C  2F4F               	goto	u3535
  1992  0F4D  0854               	movf	(_index),w
  1993  0F4E  0222               	subwf	0+(??_main+0)+0,w
  1994  0F4F                     u3535:
  1995                           
  1996  0F4F  1803               	skipnc
  1997  0F50  2F52               	goto	u3531
  1998  0F51  2F53               	goto	u3530
  1999  0F52                     u3531:
  2000  0F52  2FF4               	goto	l3632
  2001  0F53                     u3530:
  2002                           	line	756
  2003                           	
  2004  0F53                     l3604:	
  2005                           ;LED_Ticker.c: 756: for(int i = 0; i < numChars; i++){
  2006  0F53  1283               	bcf	status, 5	;RP0=0, select bank0
  2007  0F54  1303               	bcf	status, 6	;RP1=0, select bank0
  2008  0F55  01C0               	clrf	(main@i)
  2009  0F56  01C1               	clrf	(main@i+1)
  2010  0F57  2FC2               	goto	l761
  2011                           	
  2012  0F58                     l762:	
  2013                           	line	757
  2014                           	
  2015  0F58                     l3606:	
  2016                           ;LED_Ticker.c: 757: if((index + offset) > (-1)){
  2017  0F58  1283               	bcf	status, 5	;RP0=0, select bank0
  2018  0F59  1303               	bcf	status, 6	;RP1=0, select bank0
  2019  0F5A  083E               	movf	(main@offset),w
  2020  0F5B  0754               	addwf	(_index),w
  2021  0F5C  00A2               	movwf	(??_main+0)+0
  2022  0F5D  083F               	movf	(main@offset+1),w
  2023  0F5E  1803               	skipnc
  2024  0F5F  0A3F               	incf	(main@offset+1),w
  2025  0F60  0755               	addwf	(_index+1),w
  2026  0F61  00A3               	movwf	1+(??_main+0)+0
  2027  0F62  1BA3               	btfsc	1+(??_main+0)+0,7
  2028  0F63  2F65               	goto	u3541
  2029  0F64  2F66               	goto	u3540
  2030  0F65                     u3541:
  2031  0F65  2F87               	goto	l3612
  2032  0F66                     u3540:
  2033                           	line	758
  2034                           	
  2035  0F66                     l3608:	
  2036                           ;LED_Ticker.c: 758: display(streamChars[i],(index + offset));
  2037  0F66  0840               	movf	(main@i),w
  2038  0F67  00A2               	movwf	(??_main+0)+0
  2039  0F68  0722               	addwf	(??_main+0)+0,w
  2040  0F69  3E26               	addlw	main@streamChars&0ffh
  2041  0F6A  0084               	movwf	fsr0
  2042  0F6B  1383               	bcf	status, 7	;select IRP bank0
  2043  0F6C  0800               	movf	indf,w
  2044  0F6D  00F6               	movwf	(?_display)
  2045  0F6E  0A84               	incf	fsr0,f
  2046  0F6F  0800               	movf	indf,w
  2047  0F70  00F7               	movwf	(?_display+1)
  2048  0F71  083E               	movf	(main@offset),w
  2049  0F72  0754               	addwf	(_index),w
  2050  0F73  00F8               	movwf	0+(?_display)+02h
  2051  0F74  083F               	movf	(main@offset+1),w
  2052  0F75  1803               	skipnc
  2053  0F76  0A3F               	incf	(main@offset+1),w
  2054  0F77  0755               	addwf	(_index+1),w
  2055  0F78  00F9               	movwf	1+0+(?_display)+02h
  2056  0F79  120A  118A  20B5   	fcall	_display
              120A  158A         
  2057                           	line	759
  2058                           	
  2059  0F7E                     l3610:	
  2060                           ;LED_Ticker.c: 759: offset += 7;
  2061  0F7E  3007               	movlw	low(07h)
  2062  0F7F  1283               	bcf	status, 5	;RP0=0, select bank0
  2063  0F80  1303               	bcf	status, 6	;RP1=0, select bank0
  2064  0F81  07BE               	addwf	(main@offset),f
  2065  0F82  1803               	skipnc
  2066  0F83  0ABF               	incf	(main@offset+1),f
  2067  0F84  3000               	movlw	high(07h)
  2068  0F85  07BF               	addwf	(main@offset+1),f
  2069                           	line	760
  2070                           ;LED_Ticker.c: 760: }
  2071  0F86  2FBA               	goto	l3620
  2072                           	line	761
  2073                           	
  2074  0F87                     l763:	
  2075                           	line	762
  2076                           	
  2077  0F87                     l3612:	
  2078                           ;LED_Ticker.c: 761: else{
  2079                           ;LED_Ticker.c: 762: offset +=7;
  2080  0F87  3007               	movlw	low(07h)
  2081  0F88  07BE               	addwf	(main@offset),f
  2082  0F89  1803               	skipnc
  2083  0F8A  0ABF               	incf	(main@offset+1),f
  2084  0F8B  3000               	movlw	high(07h)
  2085  0F8C  07BF               	addwf	(main@offset+1),f
  2086                           	line	763
  2087                           	
  2088  0F8D                     l3614:	
  2089                           ;LED_Ticker.c: 763: for(int j=0; j <= (i * 20); j++);
  2090  0F8D  01B8               	clrf	(main@j)
  2091  0F8E  01B9               	clrf	(main@j+1)
  2092  0F8F  2F99               	goto	l3618
  2093                           	
  2094  0F90                     l766:	
  2095                           	
  2096  0F90                     l3616:	
  2097  0F90  3001               	movlw	low(01h)
  2098  0F91  1283               	bcf	status, 5	;RP0=0, select bank0
  2099  0F92  1303               	bcf	status, 6	;RP1=0, select bank0
  2100  0F93  07B8               	addwf	(main@j),f
  2101  0F94  1803               	skipnc
  2102  0F95  0AB9               	incf	(main@j+1),f
  2103  0F96  3000               	movlw	high(01h)
  2104  0F97  07B9               	addwf	(main@j+1),f
  2105  0F98  2F99               	goto	l3618
  2106                           	
  2107  0F99                     l765:	
  2108                           	
  2109  0F99                     l3618:	
  2110  0F99  0841               	movf	(main@i+1),w
  2111  0F9A  01F1               	clrf	(?___wmul+1)
  2112  0F9B  07F1               	addwf	(?___wmul+1)
  2113  0F9C  0840               	movf	(main@i),w
  2114  0F9D  01F0               	clrf	(?___wmul)
  2115  0F9E  07F0               	addwf	(?___wmul)
  2116                           
  2117  0F9F  3014               	movlw	low(014h)
  2118  0FA0  00F2               	movwf	0+(?___wmul)+02h
  2119  0FA1  3000               	movlw	high(014h)
  2120  0FA2  00F3               	movwf	(0+(?___wmul)+02h)+1
  2121  0FA3  120A  118A  208B   	fcall	___wmul
              120A  158A         
  2122  0FA8  0871               	movf	(1+(?___wmul)),w
  2123  0FA9  3A80               	xorlw	80h
  2124  0FAA  1283               	bcf	status, 5	;RP0=0, select bank0
  2125  0FAB  1303               	bcf	status, 6	;RP1=0, select bank0
  2126  0FAC  00A2               	movwf	(??_main+0)+0
  2127  0FAD  0839               	movf	(main@j+1),w
  2128  0FAE  3A80               	xorlw	80h
  2129  0FAF  0222               	subwf	(??_main+0)+0,w
  2130  0FB0  1D03               	skipz
  2131  0FB1  2FB4               	goto	u3555
  2132  0FB2  0838               	movf	(main@j),w
  2133  0FB3  0270               	subwf	(0+(?___wmul)),w
  2134  0FB4                     u3555:
  2135                           
  2136  0FB4  1803               	skipnc
  2137  0FB5  2FB7               	goto	u3551
  2138  0FB6  2FB8               	goto	u3550
  2139  0FB7                     u3551:
  2140  0FB7  2F90               	goto	l3616
  2141  0FB8                     u3550:
  2142  0FB8  2FBA               	goto	l3620
  2143                           	
  2144  0FB9                     l767:	
  2145  0FB9  2FBA               	goto	l3620
  2146                           	line	764
  2147                           	
  2148  0FBA                     l764:	
  2149                           	line	756
  2150                           	
  2151  0FBA                     l3620:	
  2152  0FBA  3001               	movlw	low(01h)
  2153  0FBB  1283               	bcf	status, 5	;RP0=0, select bank0
  2154  0FBC  1303               	bcf	status, 6	;RP1=0, select bank0
  2155  0FBD  07C0               	addwf	(main@i),f
  2156  0FBE  1803               	skipnc
  2157  0FBF  0AC1               	incf	(main@i+1),f
  2158  0FC0  3000               	movlw	high(01h)
  2159  0FC1  07C1               	addwf	(main@i+1),f
  2160                           	
  2161  0FC2                     l761:	
  2162  0FC2  0841               	movf	(main@i+1),w
  2163  0FC3  3A80               	xorlw	80h
  2164  0FC4  00A2               	movwf	(??_main+0)+0
  2165  0FC5  083D               	movf	(main@numChars+1),w
  2166  0FC6  3A80               	xorlw	80h
  2167  0FC7  0222               	subwf	(??_main+0)+0,w
  2168  0FC8  1D03               	skipz
  2169  0FC9  2FCC               	goto	u3565
  2170  0FCA  083C               	movf	(main@numChars),w
  2171  0FCB  0240               	subwf	(main@i),w
  2172  0FCC                     u3565:
  2173                           
  2174  0FCC  1C03               	skipc
  2175  0FCD  2FCF               	goto	u3561
  2176  0FCE  2FD0               	goto	u3560
  2177  0FCF                     u3561:
  2178  0FCF  2F58               	goto	l3606
  2179  0FD0                     u3560:
  2180  0FD0  2FD1               	goto	l3622
  2181                           	
  2182  0FD1                     l768:	
  2183                           	line	767
  2184                           	
  2185  0FD1                     l3622:	
  2186                           ;LED_Ticker.c: 764: }
  2187                           ;LED_Ticker.c: 765: }
  2188                           ;LED_Ticker.c: 767: offset = 0;
  2189  0FD1  1283               	bcf	status, 5	;RP0=0, select bank0
  2190  0FD2  1303               	bcf	status, 6	;RP1=0, select bank0
  2191  0FD3  01BE               	clrf	(main@offset)
  2192  0FD4  01BF               	clrf	(main@offset+1)
  2193                           	line	768
  2194                           	
  2195  0FD5                     l3624:	
  2196                           ;LED_Ticker.c: 768: counter++;
  2197  0FD5  3001               	movlw	low(01h)
  2198  0FD6  07BA               	addwf	(main@counter),f
  2199  0FD7  1803               	skipnc
  2200  0FD8  0ABB               	incf	(main@counter+1),f
  2201  0FD9  3000               	movlw	high(01h)
  2202  0FDA  07BB               	addwf	(main@counter+1),f
  2203                           	line	770
  2204                           	
  2205  0FDB                     l3626:	
  2206                           ;LED_Ticker.c: 770: if(counter > 4){
  2207  0FDB  083B               	movf	(main@counter+1),w
  2208  0FDC  3A80               	xorlw	80h
  2209  0FDD  00FF               	movwf	btemp+1
  2210  0FDE  3080               	movlw	(high(05h))^80h
  2211  0FDF  027F               	subwf	btemp+1,w
  2212  0FE0  1D03               	skipz
  2213  0FE1  2FE4               	goto	u3575
  2214  0FE2  3005               	movlw	low(05h)
  2215  0FE3  023A               	subwf	(main@counter),w
  2216  0FE4                     u3575:
  2217                           
  2218  0FE4  1C03               	skipc
  2219  0FE5  2FE7               	goto	u3571
  2220  0FE6  2FE8               	goto	u3570
  2221  0FE7                     u3571:
  2222  0FE7  2F25               	goto	l3602
  2223  0FE8                     u3570:
  2224                           	line	771
  2225                           	
  2226  0FE8                     l3628:	
  2227                           ;LED_Ticker.c: 771: counter = 0x00;
  2228  0FE8  1283               	bcf	status, 5	;RP0=0, select bank0
  2229  0FE9  1303               	bcf	status, 6	;RP1=0, select bank0
  2230  0FEA  01BA               	clrf	(main@counter)
  2231  0FEB  01BB               	clrf	(main@counter+1)
  2232                           	line	772
  2233                           	
  2234  0FEC                     l3630:	
  2235                           ;LED_Ticker.c: 772: index--;
  2236  0FEC  30FF               	movlw	low(-1)
  2237  0FED  07D4               	addwf	(_index),f
  2238  0FEE  1803               	skipnc
  2239  0FEF  0AD5               	incf	(_index+1),f
  2240  0FF0  30FF               	movlw	high(-1)
  2241  0FF1  07D5               	addwf	(_index+1),f
  2242  0FF2  2F25               	goto	l3602
  2243                           	line	773
  2244                           	
  2245  0FF3                     l769:	
  2246                           	line	775
  2247                           ;LED_Ticker.c: 773: }
  2248                           ;LED_Ticker.c: 775: }
  2249  0FF3  2F25               	goto	l3602
  2250                           	line	776
  2251                           	
  2252  0FF4                     l760:	
  2253                           	line	777
  2254                           	
  2255  0FF4                     l3632:	
  2256                           ;LED_Ticker.c: 776: else{
  2257                           ;LED_Ticker.c: 777: index = 65;
  2258  0FF4  3041               	movlw	low(041h)
  2259  0FF5  1283               	bcf	status, 5	;RP0=0, select bank0
  2260  0FF6  1303               	bcf	status, 6	;RP1=0, select bank0
  2261  0FF7  00D4               	movwf	(_index)
  2262  0FF8  3000               	movlw	high(041h)
  2263  0FF9  00D5               	movwf	((_index))+1
  2264  0FFA  2F25               	goto	l3602
  2265                           	line	778
  2266                           	
  2267  0FFB                     l770:	
  2268  0FFB  2F25               	goto	l3602
  2269                           	line	779
  2270                           	
  2271  0FFC                     l771:	
  2272                           	line	711
  2273  0FFC  2F25               	goto	l3602
  2274                           	
  2275  0FFD                     l772:	
  2276                           	line	780
  2277                           	
  2278  0FFD                     l773:	
  2279                           	global	start
  2280  0FFD  120A  118A  2800   	ljmp	start
  2281                           	opt stack 0
  2282                           GLOBAL	__end_of_main
  2283  1000                     	__end_of_main:
  2284 ;; =============== function _main ends ============
  2285                           
  2286                           	signat	_main,88
  2287                           	global	_display
  2288                           psect	text136,local,class=CODE,delta=2
  2289                           global __ptext136
  2290  00B5                     __ptext136:
  2291                           
  2292 ;; *************** function _display *****************
  2293 ;; Defined at:
  2294 ;;		line 324 in file "LED_Ticker.c"
  2295 ;; Parameters:    Size  Location     Type
  2296 ;;  charNum         2    6[COMMON] int 
  2297 ;;  start           2    8[COMMON] int 
  2298 ;; Auto vars:     Size  Location     Type
  2299 ;;  i               2    0[BANK0 ] int 
  2300 ;; Return value:  Size  Location     Type
  2301 ;;		None               void
  2302 ;; Registers used:
  2303 ;;		wreg, fsr0l, fsr0h, status,2, status,0, btemp+1, pclath, cstack
  2304 ;; Tracked objects:
  2305 ;;		On entry : 0/0
  2306 ;;		On exit  : 0/0
  2307 ;;		Unchanged: 0/0
  2308 ;; Data sizes:     COMMON   BANK0   BANK1   BANK3   BANK2
  2309 ;;      Params:         4       0       0       0       0
  2310 ;;      Locals:         0       2       0       0       0
  2311 ;;      Temps:          3       0       0       0       0
  2312 ;;      Totals:         7       2       0       0       0
  2313 ;;Total ram usage:        9 bytes
  2314 ;; Hardware stack levels used:    1
  2315 ;; Hardware stack levels required when called:    1
  2316 ;; This function calls:
  2317 ;;		___wmul
  2318 ;; This function is called by:
  2319 ;;		_main
  2320 ;; This function uses a non-reentrant model
  2321 ;;
  2322                           psect	text136
  2323                           	file	"LED_Ticker.c"
  2324                           	line	324
  2325                           	global	__size_of_display
  2326  074B                     	__size_of_display	equ	__end_of_display-_display
  2327                           	
  2328  00B5                     _display:	
  2329                           	opt	stack 6
  2330                           ; Regs used in _display: [wreg-fsr0h+status,2+status,0+btemp+1+pclath+cstack]
  2331                           	line	326
  2332                           	
  2333  00B5                     l3278:	
  2334                           ;LED_Ticker.c: 326: int i = 0x00;
  2335  00B5  1283               	bcf	status, 5	;RP0=0, select bank0
  2336  00B6  1303               	bcf	status, 6	;RP1=0, select bank0
  2337  00B7  01A0               	clrf	(display@i)
  2338  00B8  01A1               	clrf	(display@i+1)
  2339                           	line	327
  2340                           ;LED_Ticker.c: 327: PORTB = 0x00;
  2341  00B9  0186               	clrf	(6)	;volatile
  2342                           	line	328
  2343                           ;LED_Ticker.c: 328: PORTC = 0x00;
  2344  00BA  0187               	clrf	(7)	;volatile
  2345                           	line	329
  2346                           ;LED_Ticker.c: 329: PORTD = 0x00;
  2347  00BB  0188               	clrf	(8)	;volatile
  2348                           	line	330
  2349                           ;LED_Ticker.c: 330: PORTA = 0x00;
  2350  00BC  0185               	clrf	(5)	;volatile
  2351                           	line	334
  2352                           	
  2353  00BD                     l3280:	
  2354                           ;LED_Ticker.c: 334: if((start < 21)){
  2355  00BD  0879               	movf	(display@start+1),w
  2356  00BE  3A80               	xorlw	80h
  2357  00BF  00FF               	movwf	btemp+1
  2358  00C0  3080               	movlw	(high(015h))^80h
  2359  00C1  027F               	subwf	btemp+1,w
  2360  00C2  1D03               	skipz
  2361  00C3  28C6               	goto	u2925
  2362  00C4  3015               	movlw	low(015h)
  2363  00C5  0278               	subwf	(display@start),w
  2364  00C6                     u2925:
  2365                           
  2366  00C6  1803               	skipnc
  2367  00C7  28C9               	goto	u2921
  2368  00C8  28CA               	goto	u2920
  2369  00C9                     u2921:
  2370  00C9  28E8               	goto	l3288
  2371  00CA                     u2920:
  2372                           	line	335
  2373                           	
  2374  00CA                     l3282:	
  2375                           ;LED_Ticker.c: 335: PORTC = column[start];
  2376  00CA  0879               	movf	(display@start+1),w
  2377  00CB  00FB               	movwf	(??_display+0)+0+1
  2378  00CC  0878               	movf	(display@start),w
  2379  00CD  00FA               	movwf	(??_display+0)+0
  2380  00CE  3001               	movlw	01h
  2381  00CF  00FF               	movwf	btemp+1
  2382  00D0                     u2935:
  2383  00D0  1003               	clrc
  2384  00D1  0DFA               	rlf	(??_display+0)+0,f
  2385  00D2  0DFB               	rlf	(??_display+0)+1,f
  2386  00D3  0BFF               	decfsz	btemp+1,f
  2387  00D4  28D0               	goto	u2935
  2388  00D5  308A               	movlw	high(_column|8000h)
  2389  00D6  077B               	addwf	1+(??_display+0)+0,w
  2390  00D7  1283               	bcf	status, 5	;RP0=0, select bank0
  2391  00D8  1303               	bcf	status, 6	;RP1=0, select bank0
  2392  00D9  00FF               	movwf	btemp+1
  2393  00DA  3082               	movlw	low(_column|8000h)
  2394  00DB  077A               	addwf	0+(??_display+0)+0,w
  2395  00DC  0084               	movwf	fsr0
  2396  00DD  1803               	skipnc
  2397  00DE  0AFF               	incf	btemp+1,f
  2398  00DF  120A  158A  2000   	fcall	stringtab
              120A  118A         
  2399  00E4  0087               	movwf	(7)	;volatile
  2400                           	line	336
  2401                           	
  2402  00E5                     l3284:	
  2403                           ;LED_Ticker.c: 336: PORTD |= 0b01000000;
  2404  00E5  1708               	bsf	(8)+(6/8),(6)&7	;volatile
  2405                           	line	337
  2406                           	
  2407  00E6                     l3286:	
  2408                           ;LED_Ticker.c: 337: PORTA = 0x00;
  2409  00E6  0185               	clrf	(5)	;volatile
  2410                           	line	339
  2411                           ;LED_Ticker.c: 339: }
  2412  00E7  2970               	goto	l3314
  2413                           	line	340
  2414                           	
  2415  00E8                     l694:	
  2416                           	
  2417  00E8                     l3288:	
  2418                           ;LED_Ticker.c: 340: else if (start < 36){
  2419  00E8  0879               	movf	(display@start+1),w
  2420  00E9  3A80               	xorlw	80h
  2421  00EA  00FF               	movwf	btemp+1
  2422  00EB  3080               	movlw	(high(024h))^80h
  2423  00EC  027F               	subwf	btemp+1,w
  2424  00ED  1D03               	skipz
  2425  00EE  28F1               	goto	u2945
  2426  00EF  3024               	movlw	low(024h)
  2427  00F0  0278               	subwf	(display@start),w
  2428  00F1                     u2945:
  2429                           
  2430  00F1  1803               	skipnc
  2431  00F2  28F4               	goto	u2941
  2432  00F3  28F5               	goto	u2940
  2433  00F4                     u2941:
  2434  00F4  2913               	goto	l3296
  2435  00F5                     u2940:
  2436                           	line	341
  2437                           	
  2438  00F5                     l3290:	
  2439                           ;LED_Ticker.c: 341: PORTC = column[start];
  2440  00F5  0879               	movf	(display@start+1),w
  2441  00F6  00FB               	movwf	(??_display+0)+0+1
  2442  00F7  0878               	movf	(display@start),w
  2443  00F8  00FA               	movwf	(??_display+0)+0
  2444  00F9  3001               	movlw	01h
  2445  00FA  00FF               	movwf	btemp+1
  2446  00FB                     u2955:
  2447  00FB  1003               	clrc
  2448  00FC  0DFA               	rlf	(??_display+0)+0,f
  2449  00FD  0DFB               	rlf	(??_display+0)+1,f
  2450  00FE  0BFF               	decfsz	btemp+1,f
  2451  00FF  28FB               	goto	u2955
  2452  0100  308A               	movlw	high(_column|8000h)
  2453  0101  077B               	addwf	1+(??_display+0)+0,w
  2454  0102  1283               	bcf	status, 5	;RP0=0, select bank0
  2455  0103  1303               	bcf	status, 6	;RP1=0, select bank0
  2456  0104  00FF               	movwf	btemp+1
  2457  0105  3082               	movlw	low(_column|8000h)
  2458  0106  077A               	addwf	0+(??_display+0)+0,w
  2459  0107  0084               	movwf	fsr0
  2460  0108  1803               	skipnc
  2461  0109  0AFF               	incf	btemp+1,f
  2462  010A  120A  158A  2000   	fcall	stringtab
              120A  118A         
  2463  010F  0087               	movwf	(7)	;volatile
  2464                           	line	342
  2465                           	
  2466  0110                     l3292:	
  2467                           ;LED_Ticker.c: 342: PORTD |= 0b00100000;
  2468  0110  1688               	bsf	(8)+(5/8),(5)&7	;volatile
  2469                           	line	343
  2470                           	
  2471  0111                     l3294:	
  2472                           ;LED_Ticker.c: 343: PORTA = 0x00;
  2473  0111  0185               	clrf	(5)	;volatile
  2474                           	line	345
  2475                           ;LED_Ticker.c: 345: }
  2476  0112  2970               	goto	l3314
  2477                           	line	347
  2478                           	
  2479  0113                     l696:	
  2480                           	
  2481  0113                     l3296:	
  2482                           ;LED_Ticker.c: 347: else if (start < 51){
  2483  0113  0879               	movf	(display@start+1),w
  2484  0114  3A80               	xorlw	80h
  2485  0115  00FF               	movwf	btemp+1
  2486  0116  3080               	movlw	(high(033h))^80h
  2487  0117  027F               	subwf	btemp+1,w
  2488  0118  1D03               	skipz
  2489  0119  291C               	goto	u2965
  2490  011A  3033               	movlw	low(033h)
  2491  011B  0278               	subwf	(display@start),w
  2492  011C                     u2965:
  2493                           
  2494  011C  1803               	skipnc
  2495  011D  291F               	goto	u2961
  2496  011E  2920               	goto	u2960
  2497  011F                     u2961:
  2498  011F  293E               	goto	l3304
  2499  0120                     u2960:
  2500                           	line	348
  2501                           	
  2502  0120                     l3298:	
  2503                           ;LED_Ticker.c: 348: PORTC = column[start];
  2504  0120  0879               	movf	(display@start+1),w
  2505  0121  00FB               	movwf	(??_display+0)+0+1
  2506  0122  0878               	movf	(display@start),w
  2507  0123  00FA               	movwf	(??_display+0)+0
  2508  0124  3001               	movlw	01h
  2509  0125  00FF               	movwf	btemp+1
  2510  0126                     u2975:
  2511  0126  1003               	clrc
  2512  0127  0DFA               	rlf	(??_display+0)+0,f
  2513  0128  0DFB               	rlf	(??_display+0)+1,f
  2514  0129  0BFF               	decfsz	btemp+1,f
  2515  012A  2926               	goto	u2975
  2516  012B  308A               	movlw	high(_column|8000h)
  2517  012C  077B               	addwf	1+(??_display+0)+0,w
  2518  012D  1283               	bcf	status, 5	;RP0=0, select bank0
  2519  012E  1303               	bcf	status, 6	;RP1=0, select bank0
  2520  012F  00FF               	movwf	btemp+1
  2521  0130  3082               	movlw	low(_column|8000h)
  2522  0131  077A               	addwf	0+(??_display+0)+0,w
  2523  0132  0084               	movwf	fsr0
  2524  0133  1803               	skipnc
  2525  0134  0AFF               	incf	btemp+1,f
  2526  0135  120A  158A  2000   	fcall	stringtab
              120A  118A         
  2527  013A  0087               	movwf	(7)	;volatile
  2528                           	line	349
  2529                           	
  2530  013B                     l3300:	
  2531                           ;LED_Ticker.c: 349: PORTD |= 0b00010000;
  2532  013B  1608               	bsf	(8)+(4/8),(4)&7	;volatile
  2533                           	line	350
  2534                           	
  2535  013C                     l3302:	
  2536                           ;LED_Ticker.c: 350: PORTA = 0x00;
  2537  013C  0185               	clrf	(5)	;volatile
  2538                           	line	351
  2539                           ;LED_Ticker.c: 351: }
  2540  013D  2970               	goto	l3314
  2541                           	line	352
  2542                           	
  2543  013E                     l698:	
  2544                           	
  2545  013E                     l3304:	
  2546                           ;LED_Ticker.c: 352: else if (start < 66){
  2547  013E  0879               	movf	(display@start+1),w
  2548  013F  3A80               	xorlw	80h
  2549  0140  00FF               	movwf	btemp+1
  2550  0141  3080               	movlw	(high(042h))^80h
  2551  0142  027F               	subwf	btemp+1,w
  2552  0143  1D03               	skipz
  2553  0144  2947               	goto	u2985
  2554  0145  3042               	movlw	low(042h)
  2555  0146  0278               	subwf	(display@start),w
  2556  0147                     u2985:
  2557                           
  2558  0147  1803               	skipnc
  2559  0148  294A               	goto	u2981
  2560  0149  294B               	goto	u2980
  2561  014A                     u2981:
  2562  014A  2969               	goto	l3312
  2563  014B                     u2980:
  2564                           	line	353
  2565                           	
  2566  014B                     l3306:	
  2567                           ;LED_Ticker.c: 353: PORTC = column[start];
  2568  014B  0879               	movf	(display@start+1),w
  2569  014C  00FB               	movwf	(??_display+0)+0+1
  2570  014D  0878               	movf	(display@start),w
  2571  014E  00FA               	movwf	(??_display+0)+0
  2572  014F  3001               	movlw	01h
  2573  0150  00FF               	movwf	btemp+1
  2574  0151                     u2995:
  2575  0151  1003               	clrc
  2576  0152  0DFA               	rlf	(??_display+0)+0,f
  2577  0153  0DFB               	rlf	(??_display+0)+1,f
  2578  0154  0BFF               	decfsz	btemp+1,f
  2579  0155  2951               	goto	u2995
  2580  0156  308A               	movlw	high(_column|8000h)
  2581  0157  077B               	addwf	1+(??_display+0)+0,w
  2582  0158  1283               	bcf	status, 5	;RP0=0, select bank0
  2583  0159  1303               	bcf	status, 6	;RP1=0, select bank0
  2584  015A  00FF               	movwf	btemp+1
  2585  015B  3082               	movlw	low(_column|8000h)
  2586  015C  077A               	addwf	0+(??_display+0)+0,w
  2587  015D  0084               	movwf	fsr0
  2588  015E  1803               	skipnc
  2589  015F  0AFF               	incf	btemp+1,f
  2590  0160  120A  158A  2000   	fcall	stringtab
              120A  118A         
  2591  0165  0087               	movwf	(7)	;volatile
  2592                           	line	354
  2593                           	
  2594  0166                     l3308:	
  2595                           ;LED_Ticker.c: 354: PORTD |= 0b00001000;
  2596  0166  1588               	bsf	(8)+(3/8),(3)&7	;volatile
  2597                           	line	355
  2598                           	
  2599  0167                     l3310:	
  2600                           ;LED_Ticker.c: 355: PORTA = 0x00;
  2601  0167  0185               	clrf	(5)	;volatile
  2602                           	line	356
  2603                           ;LED_Ticker.c: 356: }
  2604  0168  2970               	goto	l3314
  2605                           	line	357
  2606                           	
  2607  0169                     l700:	
  2608                           	line	358
  2609                           	
  2610  0169                     l3312:	
  2611                           ;LED_Ticker.c: 357: else{
  2612                           ;LED_Ticker.c: 358: PORTC = 0x00;
  2613  0169  1283               	bcf	status, 5	;RP0=0, select bank0
  2614  016A  1303               	bcf	status, 6	;RP1=0, select bank0
  2615  016B  0187               	clrf	(7)	;volatile
  2616  016C  2970               	goto	l3314
  2617                           	line	359
  2618                           	
  2619  016D                     l701:	
  2620  016D  2970               	goto	l3314
  2621                           	
  2622  016E                     l699:	
  2623  016E  2970               	goto	l3314
  2624                           	
  2625  016F                     l697:	
  2626  016F  2970               	goto	l3314
  2627                           	
  2628  0170                     l695:	
  2629                           	line	360
  2630                           	
  2631  0170                     l3314:	
  2632                           ;LED_Ticker.c: 359: }
  2633                           ;LED_Ticker.c: 360: start++;
  2634  0170  3001               	movlw	low(01h)
  2635  0171  07F8               	addwf	(display@start),f
  2636  0172  1803               	skipnc
  2637  0173  0AF9               	incf	(display@start+1),f
  2638  0174  3000               	movlw	high(01h)
  2639  0175  07F9               	addwf	(display@start+1),f
  2640                           	line	361
  2641                           	
  2642  0176                     l3316:	
  2643                           ;LED_Ticker.c: 361: PORTB = characters[charNum][0];
  2644  0176  0877               	movf	(display@charNum+1),w
  2645  0177  01F1               	clrf	(?___wmul+1)
  2646  0178  07F1               	addwf	(?___wmul+1)
  2647  0179  0876               	movf	(display@charNum),w
  2648  017A  01F0               	clrf	(?___wmul)
  2649  017B  07F0               	addwf	(?___wmul)
  2650                           
  2651  017C  3018               	movlw	low(018h)
  2652  017D  00F2               	movwf	0+(?___wmul)+02h
  2653  017E  3000               	movlw	high(018h)
  2654  017F  00F3               	movwf	(0+(?___wmul)+02h)+1
  2655  0180  120A  118A  208B   	fcall	___wmul
              120A  118A         
  2656  0185  3088               	movlw	high(_characters|8000h)
  2657  0186  0771               	addwf	(1+(?___wmul)),w
  2658  0187  1283               	bcf	status, 5	;RP0=0, select bank0
  2659  0188  1303               	bcf	status, 6	;RP1=0, select bank0
  2660  0189  00FF               	movwf	btemp+1
  2661  018A  3012               	movlw	low(_characters|8000h)
  2662  018B  0770               	addwf	(0+(?___wmul)),w
  2663  018C  0084               	movwf	fsr0
  2664  018D  1803               	skipnc
  2665  018E  0AFF               	incf	btemp+1,f
  2666  018F  120A  158A  2000   	fcall	stringtab
              120A  118A         
  2667  0194  0086               	movwf	(6)	;volatile
  2668                           	line	362
  2669                           	
  2670  0195                     l3318:	
  2671                           ;LED_Ticker.c: 362: PORTD |= characters[charNum][1];
  2672  0195  0877               	movf	(display@charNum+1),w
  2673  0196  01F1               	clrf	(?___wmul+1)
  2674  0197  07F1               	addwf	(?___wmul+1)
  2675  0198  0876               	movf	(display@charNum),w
  2676  0199  01F0               	clrf	(?___wmul)
  2677  019A  07F0               	addwf	(?___wmul)
  2678                           
  2679  019B  3018               	movlw	low(018h)
  2680  019C  00F2               	movwf	0+(?___wmul)+02h
  2681  019D  3000               	movlw	high(018h)
  2682  019E  00F3               	movwf	(0+(?___wmul)+02h)+1
  2683  019F  120A  118A  208B   	fcall	___wmul
              120A  118A         
  2684  01A4  0870               	movf	(0+(?___wmul)),w
  2685  01A5  3E02               	addlw	low(02h)
  2686  01A6  00FA               	movwf	(??_display+0)+0
  2687  01A7  0871               	movf	(1+(?___wmul)),w
  2688  01A8  1803               	skipnc
  2689  01A9  3E01               	addlw	1
  2690  01AA  3E00               	addlw	high(02h)
  2691  01AB  00FB               	movwf	1+(??_display+0)+0
  2692  01AC  3088               	movlw	high(_characters|8000h)
  2693  01AD  077B               	addwf	1+(??_display+0)+0,w
  2694  01AE  1283               	bcf	status, 5	;RP0=0, select bank0
  2695  01AF  1303               	bcf	status, 6	;RP1=0, select bank0
  2696  01B0  00FF               	movwf	btemp+1
  2697  01B1  3012               	movlw	low(_characters|8000h)
  2698  01B2  077A               	addwf	0+(??_display+0)+0,w
  2699  01B3  0084               	movwf	fsr0
  2700  01B4  1803               	skipnc
  2701  01B5  0AFF               	incf	btemp+1,f
  2702  01B6  120A  158A  2000   	fcall	stringtab
              120A  118A         
  2703  01BB  00FC               	movwf	(??_display+2)+0
  2704  01BC  087C               	movf	(??_display+2)+0,w
  2705  01BD  0488               	iorwf	(8),f	;volatile
  2706                           	line	363
  2707                           	
  2708  01BE                     l3320:	
  2709                           ;LED_Ticker.c: 363: for(i=0; i<20; i++){;}
  2710  01BE  01A0               	clrf	(display@i)
  2711  01BF  01A1               	clrf	(display@i+1)
  2712                           	
  2713  01C0                     l3322:	
  2714  01C0  0821               	movf	(display@i+1),w
  2715  01C1  3A80               	xorlw	80h
  2716  01C2  00FF               	movwf	btemp+1
  2717  01C3  3080               	movlw	(high(014h))^80h
  2718  01C4  027F               	subwf	btemp+1,w
  2719  01C5  1D03               	skipz
  2720  01C6  29C9               	goto	u3005
  2721  01C7  3014               	movlw	low(014h)
  2722  01C8  0220               	subwf	(display@i),w
  2723  01C9                     u3005:
  2724                           
  2725  01C9  1C03               	skipc
  2726  01CA  29CC               	goto	u3001
  2727  01CB  29CD               	goto	u3000
  2728  01CC                     u3001:
  2729  01CC  29CF               	goto	l3326
  2730  01CD                     u3000:
  2731  01CD  29E5               	goto	l3330
  2732                           	
  2733  01CE                     l3324:	
  2734  01CE  29E5               	goto	l3330
  2735                           	
  2736  01CF                     l702:	
  2737                           	
  2738  01CF                     l3326:	
  2739  01CF  3001               	movlw	low(01h)
  2740  01D0  1283               	bcf	status, 5	;RP0=0, select bank0
  2741  01D1  1303               	bcf	status, 6	;RP1=0, select bank0
  2742  01D2  07A0               	addwf	(display@i),f
  2743  01D3  1803               	skipnc
  2744  01D4  0AA1               	incf	(display@i+1),f
  2745  01D5  3000               	movlw	high(01h)
  2746  01D6  07A1               	addwf	(display@i+1),f
  2747                           	
  2748  01D7                     l3328:	
  2749  01D7  0821               	movf	(display@i+1),w
  2750  01D8  3A80               	xorlw	80h
  2751  01D9  00FF               	movwf	btemp+1
  2752  01DA  3080               	movlw	(high(014h))^80h
  2753  01DB  027F               	subwf	btemp+1,w
  2754  01DC  1D03               	skipz
  2755  01DD  29E0               	goto	u3015
  2756  01DE  3014               	movlw	low(014h)
  2757  01DF  0220               	subwf	(display@i),w
  2758  01E0                     u3015:
  2759                           
  2760  01E0  1C03               	skipc
  2761  01E1  29E3               	goto	u3011
  2762  01E2  29E4               	goto	u3010
  2763  01E3                     u3011:
  2764  01E3  29CF               	goto	l3326
  2765  01E4                     u3010:
  2766  01E4  29E5               	goto	l3330
  2767                           	
  2768  01E5                     l703:	
  2769                           	line	364
  2770                           	
  2771  01E5                     l3330:	
  2772                           ;LED_Ticker.c: 364: PORTA = 0x00;
  2773  01E5  1283               	bcf	status, 5	;RP0=0, select bank0
  2774  01E6  1303               	bcf	status, 6	;RP1=0, select bank0
  2775  01E7  0185               	clrf	(5)	;volatile
  2776                           	line	365
  2777                           ;LED_Ticker.c: 365: PORTB = 0x00;
  2778  01E8  0186               	clrf	(6)	;volatile
  2779                           	line	366
  2780                           ;LED_Ticker.c: 366: PORTC = 0x00;
  2781  01E9  0187               	clrf	(7)	;volatile
  2782                           	line	367
  2783                           ;LED_Ticker.c: 367: PORTD = 0x00;
  2784  01EA  0188               	clrf	(8)	;volatile
  2785                           	line	368
  2786                           ;LED_Ticker.c: 368: PORTE = 0x00;
  2787  01EB  0189               	clrf	(9)	;volatile
  2788                           	line	376
  2789                           	
  2790  01EC                     l3332:	
  2791                           ;LED_Ticker.c: 376: if((start < 21)){
  2792  01EC  0879               	movf	(display@start+1),w
  2793  01ED  3A80               	xorlw	80h
  2794  01EE  00FF               	movwf	btemp+1
  2795  01EF  3080               	movlw	(high(015h))^80h
  2796  01F0  027F               	subwf	btemp+1,w
  2797  01F1  1D03               	skipz
  2798  01F2  29F5               	goto	u3025
  2799  01F3  3015               	movlw	low(015h)
  2800  01F4  0278               	subwf	(display@start),w
  2801  01F5                     u3025:
  2802                           
  2803  01F5  1803               	skipnc
  2804  01F6  29F8               	goto	u3021
  2805  01F7  29F9               	goto	u3020
  2806  01F8                     u3021:
  2807  01F8  2A17               	goto	l3340
  2808  01F9                     u3020:
  2809                           	line	377
  2810                           	
  2811  01F9                     l3334:	
  2812                           ;LED_Ticker.c: 377: PORTC = column[start];
  2813  01F9  0879               	movf	(display@start+1),w
  2814  01FA  00FB               	movwf	(??_display+0)+0+1
  2815  01FB  0878               	movf	(display@start),w
  2816  01FC  00FA               	movwf	(??_display+0)+0
  2817  01FD  3001               	movlw	01h
  2818  01FE  00FF               	movwf	btemp+1
  2819  01FF                     u3035:
  2820  01FF  1003               	clrc
  2821  0200  0DFA               	rlf	(??_display+0)+0,f
  2822  0201  0DFB               	rlf	(??_display+0)+1,f
  2823  0202  0BFF               	decfsz	btemp+1,f
  2824  0203  29FF               	goto	u3035
  2825  0204  308A               	movlw	high(_column|8000h)
  2826  0205  077B               	addwf	1+(??_display+0)+0,w
  2827  0206  1283               	bcf	status, 5	;RP0=0, select bank0
  2828  0207  1303               	bcf	status, 6	;RP1=0, select bank0
  2829  0208  00FF               	movwf	btemp+1
  2830  0209  3082               	movlw	low(_column|8000h)
  2831  020A  077A               	addwf	0+(??_display+0)+0,w
  2832  020B  0084               	movwf	fsr0
  2833  020C  1803               	skipnc
  2834  020D  0AFF               	incf	btemp+1,f
  2835  020E  120A  158A  2000   	fcall	stringtab
              120A  118A         
  2836  0213  0087               	movwf	(7)	;volatile
  2837                           	line	378
  2838                           	
  2839  0214                     l3336:	
  2840                           ;LED_Ticker.c: 378: PORTD |= 0b01000000;
  2841  0214  1708               	bsf	(8)+(6/8),(6)&7	;volatile
  2842                           	line	379
  2843                           	
  2844  0215                     l3338:	
  2845                           ;LED_Ticker.c: 379: PORTA = 0x00;
  2846  0215  0185               	clrf	(5)	;volatile
  2847                           	line	381
  2848                           ;LED_Ticker.c: 381: }
  2849  0216  2A9F               	goto	l3366
  2850                           	line	382
  2851                           	
  2852  0217                     l704:	
  2853                           	
  2854  0217                     l3340:	
  2855                           ;LED_Ticker.c: 382: else if (start < 36){
  2856  0217  0879               	movf	(display@start+1),w
  2857  0218  3A80               	xorlw	80h
  2858  0219  00FF               	movwf	btemp+1
  2859  021A  3080               	movlw	(high(024h))^80h
  2860  021B  027F               	subwf	btemp+1,w
  2861  021C  1D03               	skipz
  2862  021D  2A20               	goto	u3045
  2863  021E  3024               	movlw	low(024h)
  2864  021F  0278               	subwf	(display@start),w
  2865  0220                     u3045:
  2866                           
  2867  0220  1803               	skipnc
  2868  0221  2A23               	goto	u3041
  2869  0222  2A24               	goto	u3040
  2870  0223                     u3041:
  2871  0223  2A42               	goto	l3348
  2872  0224                     u3040:
  2873                           	line	383
  2874                           	
  2875  0224                     l3342:	
  2876                           ;LED_Ticker.c: 383: PORTC = column[start];
  2877  0224  0879               	movf	(display@start+1),w
  2878  0225  00FB               	movwf	(??_display+0)+0+1
  2879  0226  0878               	movf	(display@start),w
  2880  0227  00FA               	movwf	(??_display+0)+0
  2881  0228  3001               	movlw	01h
  2882  0229  00FF               	movwf	btemp+1
  2883  022A                     u3055:
  2884  022A  1003               	clrc
  2885  022B  0DFA               	rlf	(??_display+0)+0,f
  2886  022C  0DFB               	rlf	(??_display+0)+1,f
  2887  022D  0BFF               	decfsz	btemp+1,f
  2888  022E  2A2A               	goto	u3055
  2889  022F  308A               	movlw	high(_column|8000h)
  2890  0230  077B               	addwf	1+(??_display+0)+0,w
  2891  0231  1283               	bcf	status, 5	;RP0=0, select bank0
  2892  0232  1303               	bcf	status, 6	;RP1=0, select bank0
  2893  0233  00FF               	movwf	btemp+1
  2894  0234  3082               	movlw	low(_column|8000h)
  2895  0235  077A               	addwf	0+(??_display+0)+0,w
  2896  0236  0084               	movwf	fsr0
  2897  0237  1803               	skipnc
  2898  0238  0AFF               	incf	btemp+1,f
  2899  0239  120A  158A  2000   	fcall	stringtab
              120A  118A         
  2900  023E  0087               	movwf	(7)	;volatile
  2901                           	line	384
  2902                           	
  2903  023F                     l3344:	
  2904                           ;LED_Ticker.c: 384: PORTD |= 0b00100000;
  2905  023F  1688               	bsf	(8)+(5/8),(5)&7	;volatile
  2906                           	line	385
  2907                           	
  2908  0240                     l3346:	
  2909                           ;LED_Ticker.c: 385: PORTA = 0x00;
  2910  0240  0185               	clrf	(5)	;volatile
  2911                           	line	387
  2912                           ;LED_Ticker.c: 387: }
  2913  0241  2A9F               	goto	l3366
  2914                           	line	388
  2915                           	
  2916  0242                     l706:	
  2917                           	
  2918  0242                     l3348:	
  2919                           ;LED_Ticker.c: 388: else if (start < 51){
  2920  0242  0879               	movf	(display@start+1),w
  2921  0243  3A80               	xorlw	80h
  2922  0244  00FF               	movwf	btemp+1
  2923  0245  3080               	movlw	(high(033h))^80h
  2924  0246  027F               	subwf	btemp+1,w
  2925  0247  1D03               	skipz
  2926  0248  2A4B               	goto	u3065
  2927  0249  3033               	movlw	low(033h)
  2928  024A  0278               	subwf	(display@start),w
  2929  024B                     u3065:
  2930                           
  2931  024B  1803               	skipnc
  2932  024C  2A4E               	goto	u3061
  2933  024D  2A4F               	goto	u3060
  2934  024E                     u3061:
  2935  024E  2A6D               	goto	l3356
  2936  024F                     u3060:
  2937                           	line	389
  2938                           	
  2939  024F                     l3350:	
  2940                           ;LED_Ticker.c: 389: PORTC = column[start];
  2941  024F  0879               	movf	(display@start+1),w
  2942  0250  00FB               	movwf	(??_display+0)+0+1
  2943  0251  0878               	movf	(display@start),w
  2944  0252  00FA               	movwf	(??_display+0)+0
  2945  0253  3001               	movlw	01h
  2946  0254  00FF               	movwf	btemp+1
  2947  0255                     u3075:
  2948  0255  1003               	clrc
  2949  0256  0DFA               	rlf	(??_display+0)+0,f
  2950  0257  0DFB               	rlf	(??_display+0)+1,f
  2951  0258  0BFF               	decfsz	btemp+1,f
  2952  0259  2A55               	goto	u3075
  2953  025A  308A               	movlw	high(_column|8000h)
  2954  025B  077B               	addwf	1+(??_display+0)+0,w
  2955  025C  1283               	bcf	status, 5	;RP0=0, select bank0
  2956  025D  1303               	bcf	status, 6	;RP1=0, select bank0
  2957  025E  00FF               	movwf	btemp+1
  2958  025F  3082               	movlw	low(_column|8000h)
  2959  0260  077A               	addwf	0+(??_display+0)+0,w
  2960  0261  0084               	movwf	fsr0
  2961  0262  1803               	skipnc
  2962  0263  0AFF               	incf	btemp+1,f
  2963  0264  120A  158A  2000   	fcall	stringtab
              120A  118A         
  2964  0269  0087               	movwf	(7)	;volatile
  2965                           	line	390
  2966                           	
  2967  026A                     l3352:	
  2968                           ;LED_Ticker.c: 390: PORTD |= 0b00010000;
  2969  026A  1608               	bsf	(8)+(4/8),(4)&7	;volatile
  2970                           	line	391
  2971                           	
  2972  026B                     l3354:	
  2973                           ;LED_Ticker.c: 391: PORTA = 0x00;
  2974  026B  0185               	clrf	(5)	;volatile
  2975                           	line	392
  2976                           ;LED_Ticker.c: 392: }
  2977  026C  2A9F               	goto	l3366
  2978                           	line	393
  2979                           	
  2980  026D                     l708:	
  2981                           	
  2982  026D                     l3356:	
  2983                           ;LED_Ticker.c: 393: else if (start < 66){
  2984  026D  0879               	movf	(display@start+1),w
  2985  026E  3A80               	xorlw	80h
  2986  026F  00FF               	movwf	btemp+1
  2987  0270  3080               	movlw	(high(042h))^80h
  2988  0271  027F               	subwf	btemp+1,w
  2989  0272  1D03               	skipz
  2990  0273  2A76               	goto	u3085
  2991  0274  3042               	movlw	low(042h)
  2992  0275  0278               	subwf	(display@start),w
  2993  0276                     u3085:
  2994                           
  2995  0276  1803               	skipnc
  2996  0277  2A79               	goto	u3081
  2997  0278  2A7A               	goto	u3080
  2998  0279                     u3081:
  2999  0279  2A98               	goto	l3364
  3000  027A                     u3080:
  3001                           	line	394
  3002                           	
  3003  027A                     l3358:	
  3004                           ;LED_Ticker.c: 394: PORTC = column[start];
  3005  027A  0879               	movf	(display@start+1),w
  3006  027B  00FB               	movwf	(??_display+0)+0+1
  3007  027C  0878               	movf	(display@start),w
  3008  027D  00FA               	movwf	(??_display+0)+0
  3009  027E  3001               	movlw	01h
  3010  027F  00FF               	movwf	btemp+1
  3011  0280                     u3095:
  3012  0280  1003               	clrc
  3013  0281  0DFA               	rlf	(??_display+0)+0,f
  3014  0282  0DFB               	rlf	(??_display+0)+1,f
  3015  0283  0BFF               	decfsz	btemp+1,f
  3016  0284  2A80               	goto	u3095
  3017  0285  308A               	movlw	high(_column|8000h)
  3018  0286  077B               	addwf	1+(??_display+0)+0,w
  3019  0287  1283               	bcf	status, 5	;RP0=0, select bank0
  3020  0288  1303               	bcf	status, 6	;RP1=0, select bank0
  3021  0289  00FF               	movwf	btemp+1
  3022  028A  3082               	movlw	low(_column|8000h)
  3023  028B  077A               	addwf	0+(??_display+0)+0,w
  3024  028C  0084               	movwf	fsr0
  3025  028D  1803               	skipnc
  3026  028E  0AFF               	incf	btemp+1,f
  3027  028F  120A  158A  2000   	fcall	stringtab
              120A  118A         
  3028  0294  0087               	movwf	(7)	;volatile
  3029                           	line	395
  3030                           	
  3031  0295                     l3360:	
  3032                           ;LED_Ticker.c: 395: PORTD |= 0b00001000;
  3033  0295  1588               	bsf	(8)+(3/8),(3)&7	;volatile
  3034                           	line	396
  3035                           	
  3036  0296                     l3362:	
  3037                           ;LED_Ticker.c: 396: PORTA = 0x00;
  3038  0296  0185               	clrf	(5)	;volatile
  3039                           	line	397
  3040                           ;LED_Ticker.c: 397: }
  3041  0297  2A9F               	goto	l3366
  3042                           	line	398
  3043                           	
  3044  0298                     l710:	
  3045                           	line	399
  3046                           	
  3047  0298                     l3364:	
  3048                           ;LED_Ticker.c: 398: else{
  3049                           ;LED_Ticker.c: 399: PORTC = 0x00;
  3050  0298  1283               	bcf	status, 5	;RP0=0, select bank0
  3051  0299  1303               	bcf	status, 6	;RP1=0, select bank0
  3052  029A  0187               	clrf	(7)	;volatile
  3053  029B  2A9F               	goto	l3366
  3054                           	line	400
  3055                           	
  3056  029C                     l711:	
  3057  029C  2A9F               	goto	l3366
  3058                           	
  3059  029D                     l709:	
  3060  029D  2A9F               	goto	l3366
  3061                           	
  3062  029E                     l707:	
  3063  029E  2A9F               	goto	l3366
  3064                           	
  3065  029F                     l705:	
  3066                           	line	401
  3067                           	
  3068  029F                     l3366:	
  3069                           ;LED_Ticker.c: 400: }
  3070                           ;LED_Ticker.c: 401: start++;
  3071  029F  3001               	movlw	low(01h)
  3072  02A0  07F8               	addwf	(display@start),f
  3073  02A1  1803               	skipnc
  3074  02A2  0AF9               	incf	(display@start+1),f
  3075  02A3  3000               	movlw	high(01h)
  3076  02A4  07F9               	addwf	(display@start+1),f
  3077                           	line	402
  3078                           	
  3079  02A5                     l3368:	
  3080                           ;LED_Ticker.c: 402: PORTB = characters[charNum][2];
  3081  02A5  0877               	movf	(display@charNum+1),w
  3082  02A6  01F1               	clrf	(?___wmul+1)
  3083  02A7  07F1               	addwf	(?___wmul+1)
  3084  02A8  0876               	movf	(display@charNum),w
  3085  02A9  01F0               	clrf	(?___wmul)
  3086  02AA  07F0               	addwf	(?___wmul)
  3087                           
  3088  02AB  3018               	movlw	low(018h)
  3089  02AC  00F2               	movwf	0+(?___wmul)+02h
  3090  02AD  3000               	movlw	high(018h)
  3091  02AE  00F3               	movwf	(0+(?___wmul)+02h)+1
  3092  02AF  120A  118A  208B   	fcall	___wmul
              120A  118A         
  3093  02B4  0870               	movf	(0+(?___wmul)),w
  3094  02B5  3E04               	addlw	low(04h)
  3095  02B6  00FA               	movwf	(??_display+0)+0
  3096  02B7  0871               	movf	(1+(?___wmul)),w
  3097  02B8  1803               	skipnc
  3098  02B9  3E01               	addlw	1
  3099  02BA  3E00               	addlw	high(04h)
  3100  02BB  00FB               	movwf	1+(??_display+0)+0
  3101  02BC  3088               	movlw	high(_characters|8000h)
  3102  02BD  077B               	addwf	1+(??_display+0)+0,w
  3103  02BE  1283               	bcf	status, 5	;RP0=0, select bank0
  3104  02BF  1303               	bcf	status, 6	;RP1=0, select bank0
  3105  02C0  00FF               	movwf	btemp+1
  3106  02C1  3012               	movlw	low(_characters|8000h)
  3107  02C2  077A               	addwf	0+(??_display+0)+0,w
  3108  02C3  0084               	movwf	fsr0
  3109  02C4  1803               	skipnc
  3110  02C5  0AFF               	incf	btemp+1,f
  3111  02C6  120A  158A  2000   	fcall	stringtab
              120A  118A         
  3112  02CB  0086               	movwf	(6)	;volatile
  3113                           	line	403
  3114                           	
  3115  02CC                     l3370:	
  3116                           ;LED_Ticker.c: 403: PORTD |= characters[charNum][3];
  3117  02CC  0877               	movf	(display@charNum+1),w
  3118  02CD  01F1               	clrf	(?___wmul+1)
  3119  02CE  07F1               	addwf	(?___wmul+1)
  3120  02CF  0876               	movf	(display@charNum),w
  3121  02D0  01F0               	clrf	(?___wmul)
  3122  02D1  07F0               	addwf	(?___wmul)
  3123                           
  3124  02D2  3018               	movlw	low(018h)
  3125  02D3  00F2               	movwf	0+(?___wmul)+02h
  3126  02D4  3000               	movlw	high(018h)
  3127  02D5  00F3               	movwf	(0+(?___wmul)+02h)+1
  3128  02D6  120A  118A  208B   	fcall	___wmul
              120A  118A         
  3129  02DB  0870               	movf	(0+(?___wmul)),w
  3130  02DC  3E06               	addlw	low(06h)
  3131  02DD  00FA               	movwf	(??_display+0)+0
  3132  02DE  0871               	movf	(1+(?___wmul)),w
  3133  02DF  1803               	skipnc
  3134  02E0  3E01               	addlw	1
  3135  02E1  3E00               	addlw	high(06h)
  3136  02E2  00FB               	movwf	1+(??_display+0)+0
  3137  02E3  3088               	movlw	high(_characters|8000h)
  3138  02E4  077B               	addwf	1+(??_display+0)+0,w
  3139  02E5  1283               	bcf	status, 5	;RP0=0, select bank0
  3140  02E6  1303               	bcf	status, 6	;RP1=0, select bank0
  3141  02E7  00FF               	movwf	btemp+1
  3142  02E8  3012               	movlw	low(_characters|8000h)
  3143  02E9  077A               	addwf	0+(??_display+0)+0,w
  3144  02EA  0084               	movwf	fsr0
  3145  02EB  1803               	skipnc
  3146  02EC  0AFF               	incf	btemp+1,f
  3147  02ED  120A  158A  2000   	fcall	stringtab
              120A  118A         
  3148  02F2  00FC               	movwf	(??_display+2)+0
  3149  02F3  087C               	movf	(??_display+2)+0,w
  3150  02F4  0488               	iorwf	(8),f	;volatile
  3151                           	line	404
  3152                           	
  3153  02F5                     l3372:	
  3154                           ;LED_Ticker.c: 404: for(i=0; i<20; i++){;}
  3155  02F5  01A0               	clrf	(display@i)
  3156  02F6  01A1               	clrf	(display@i+1)
  3157                           	
  3158  02F7                     l3374:	
  3159  02F7  0821               	movf	(display@i+1),w
  3160  02F8  3A80               	xorlw	80h
  3161  02F9  00FF               	movwf	btemp+1
  3162  02FA  3080               	movlw	(high(014h))^80h
  3163  02FB  027F               	subwf	btemp+1,w
  3164  02FC  1D03               	skipz
  3165  02FD  2B00               	goto	u3105
  3166  02FE  3014               	movlw	low(014h)
  3167  02FF  0220               	subwf	(display@i),w
  3168  0300                     u3105:
  3169                           
  3170  0300  1C03               	skipc
  3171  0301  2B03               	goto	u3101
  3172  0302  2B04               	goto	u3100
  3173  0303                     u3101:
  3174  0303  2B06               	goto	l3378
  3175  0304                     u3100:
  3176  0304  2B1C               	goto	l3382
  3177                           	
  3178  0305                     l3376:	
  3179  0305  2B1C               	goto	l3382
  3180                           	
  3181  0306                     l712:	
  3182                           	
  3183  0306                     l3378:	
  3184  0306  3001               	movlw	low(01h)
  3185  0307  1283               	bcf	status, 5	;RP0=0, select bank0
  3186  0308  1303               	bcf	status, 6	;RP1=0, select bank0
  3187  0309  07A0               	addwf	(display@i),f
  3188  030A  1803               	skipnc
  3189  030B  0AA1               	incf	(display@i+1),f
  3190  030C  3000               	movlw	high(01h)
  3191  030D  07A1               	addwf	(display@i+1),f
  3192                           	
  3193  030E                     l3380:	
  3194  030E  0821               	movf	(display@i+1),w
  3195  030F  3A80               	xorlw	80h
  3196  0310  00FF               	movwf	btemp+1
  3197  0311  3080               	movlw	(high(014h))^80h
  3198  0312  027F               	subwf	btemp+1,w
  3199  0313  1D03               	skipz
  3200  0314  2B17               	goto	u3115
  3201  0315  3014               	movlw	low(014h)
  3202  0316  0220               	subwf	(display@i),w
  3203  0317                     u3115:
  3204                           
  3205  0317  1C03               	skipc
  3206  0318  2B1A               	goto	u3111
  3207  0319  2B1B               	goto	u3110
  3208  031A                     u3111:
  3209  031A  2B06               	goto	l3378
  3210  031B                     u3110:
  3211  031B  2B1C               	goto	l3382
  3212                           	
  3213  031C                     l713:	
  3214                           	line	405
  3215                           	
  3216  031C                     l3382:	
  3217                           ;LED_Ticker.c: 405: PORTA = 0x00;
  3218  031C  1283               	bcf	status, 5	;RP0=0, select bank0
  3219  031D  1303               	bcf	status, 6	;RP1=0, select bank0
  3220  031E  0185               	clrf	(5)	;volatile
  3221                           	line	406
  3222                           ;LED_Ticker.c: 406: PORTB = 0x00;
  3223  031F  0186               	clrf	(6)	;volatile
  3224                           	line	407
  3225                           ;LED_Ticker.c: 407: PORTC = 0x00;
  3226  0320  0187               	clrf	(7)	;volatile
  3227                           	line	408
  3228                           ;LED_Ticker.c: 408: PORTD = 0x00;
  3229  0321  0188               	clrf	(8)	;volatile
  3230                           	line	409
  3231                           ;LED_Ticker.c: 409: PORTE = 0x00;
  3232  0322  0189               	clrf	(9)	;volatile
  3233                           	line	417
  3234                           	
  3235  0323                     l3384:	
  3236                           ;LED_Ticker.c: 417: if((start < 21)){
  3237  0323  0879               	movf	(display@start+1),w
  3238  0324  3A80               	xorlw	80h
  3239  0325  00FF               	movwf	btemp+1
  3240  0326  3080               	movlw	(high(015h))^80h
  3241  0327  027F               	subwf	btemp+1,w
  3242  0328  1D03               	skipz
  3243  0329  2B2C               	goto	u3125
  3244  032A  3015               	movlw	low(015h)
  3245  032B  0278               	subwf	(display@start),w
  3246  032C                     u3125:
  3247                           
  3248  032C  1803               	skipnc
  3249  032D  2B2F               	goto	u3121
  3250  032E  2B30               	goto	u3120
  3251  032F                     u3121:
  3252  032F  2B4E               	goto	l3392
  3253  0330                     u3120:
  3254                           	line	418
  3255                           	
  3256  0330                     l3386:	
  3257                           ;LED_Ticker.c: 418: PORTC = column[start];
  3258  0330  0879               	movf	(display@start+1),w
  3259  0331  00FB               	movwf	(??_display+0)+0+1
  3260  0332  0878               	movf	(display@start),w
  3261  0333  00FA               	movwf	(??_display+0)+0
  3262  0334  3001               	movlw	01h
  3263  0335  00FF               	movwf	btemp+1
  3264  0336                     u3135:
  3265  0336  1003               	clrc
  3266  0337  0DFA               	rlf	(??_display+0)+0,f
  3267  0338  0DFB               	rlf	(??_display+0)+1,f
  3268  0339  0BFF               	decfsz	btemp+1,f
  3269  033A  2B36               	goto	u3135
  3270  033B  308A               	movlw	high(_column|8000h)
  3271  033C  077B               	addwf	1+(??_display+0)+0,w
  3272  033D  1283               	bcf	status, 5	;RP0=0, select bank0
  3273  033E  1303               	bcf	status, 6	;RP1=0, select bank0
  3274  033F  00FF               	movwf	btemp+1
  3275  0340  3082               	movlw	low(_column|8000h)
  3276  0341  077A               	addwf	0+(??_display+0)+0,w
  3277  0342  0084               	movwf	fsr0
  3278  0343  1803               	skipnc
  3279  0344  0AFF               	incf	btemp+1,f
  3280  0345  120A  158A  2000   	fcall	stringtab
              120A  118A         
  3281  034A  0087               	movwf	(7)	;volatile
  3282                           	line	419
  3283                           	
  3284  034B                     l3388:	
  3285                           ;LED_Ticker.c: 419: PORTD |= 0b01000000;
  3286  034B  1708               	bsf	(8)+(6/8),(6)&7	;volatile
  3287                           	line	420
  3288                           	
  3289  034C                     l3390:	
  3290                           ;LED_Ticker.c: 420: PORTA = 0x00;
  3291  034C  0185               	clrf	(5)	;volatile
  3292                           	line	422
  3293                           ;LED_Ticker.c: 422: }
  3294  034D  2BD6               	goto	l3418
  3295                           	line	423
  3296                           	
  3297  034E                     l714:	
  3298                           	
  3299  034E                     l3392:	
  3300                           ;LED_Ticker.c: 423: else if (start < 36){
  3301  034E  0879               	movf	(display@start+1),w
  3302  034F  3A80               	xorlw	80h
  3303  0350  00FF               	movwf	btemp+1
  3304  0351  3080               	movlw	(high(024h))^80h
  3305  0352  027F               	subwf	btemp+1,w
  3306  0353  1D03               	skipz
  3307  0354  2B57               	goto	u3145
  3308  0355  3024               	movlw	low(024h)
  3309  0356  0278               	subwf	(display@start),w
  3310  0357                     u3145:
  3311                           
  3312  0357  1803               	skipnc
  3313  0358  2B5A               	goto	u3141
  3314  0359  2B5B               	goto	u3140
  3315  035A                     u3141:
  3316  035A  2B79               	goto	l3400
  3317  035B                     u3140:
  3318                           	line	424
  3319                           	
  3320  035B                     l3394:	
  3321                           ;LED_Ticker.c: 424: PORTC = column[start];
  3322  035B  0879               	movf	(display@start+1),w
  3323  035C  00FB               	movwf	(??_display+0)+0+1
  3324  035D  0878               	movf	(display@start),w
  3325  035E  00FA               	movwf	(??_display+0)+0
  3326  035F  3001               	movlw	01h
  3327  0360  00FF               	movwf	btemp+1
  3328  0361                     u3155:
  3329  0361  1003               	clrc
  3330  0362  0DFA               	rlf	(??_display+0)+0,f
  3331  0363  0DFB               	rlf	(??_display+0)+1,f
  3332  0364  0BFF               	decfsz	btemp+1,f
  3333  0365  2B61               	goto	u3155
  3334  0366  308A               	movlw	high(_column|8000h)
  3335  0367  077B               	addwf	1+(??_display+0)+0,w
  3336  0368  1283               	bcf	status, 5	;RP0=0, select bank0
  3337  0369  1303               	bcf	status, 6	;RP1=0, select bank0
  3338  036A  00FF               	movwf	btemp+1
  3339  036B  3082               	movlw	low(_column|8000h)
  3340  036C  077A               	addwf	0+(??_display+0)+0,w
  3341  036D  0084               	movwf	fsr0
  3342  036E  1803               	skipnc
  3343  036F  0AFF               	incf	btemp+1,f
  3344  0370  120A  158A  2000   	fcall	stringtab
              120A  118A         
  3345  0375  0087               	movwf	(7)	;volatile
  3346                           	line	425
  3347                           	
  3348  0376                     l3396:	
  3349                           ;LED_Ticker.c: 425: PORTD |= 0b00100000;
  3350  0376  1688               	bsf	(8)+(5/8),(5)&7	;volatile
  3351                           	line	426
  3352                           	
  3353  0377                     l3398:	
  3354                           ;LED_Ticker.c: 426: PORTA = 0x00;
  3355  0377  0185               	clrf	(5)	;volatile
  3356                           	line	428
  3357                           ;LED_Ticker.c: 428: }
  3358  0378  2BD6               	goto	l3418
  3359                           	line	429
  3360                           	
  3361  0379                     l716:	
  3362                           	
  3363  0379                     l3400:	
  3364                           ;LED_Ticker.c: 429: else if (start < 51){
  3365  0379  0879               	movf	(display@start+1),w
  3366  037A  3A80               	xorlw	80h
  3367  037B  00FF               	movwf	btemp+1
  3368  037C  3080               	movlw	(high(033h))^80h
  3369  037D  027F               	subwf	btemp+1,w
  3370  037E  1D03               	skipz
  3371  037F  2B82               	goto	u3165
  3372  0380  3033               	movlw	low(033h)
  3373  0381  0278               	subwf	(display@start),w
  3374  0382                     u3165:
  3375                           
  3376  0382  1803               	skipnc
  3377  0383  2B85               	goto	u3161
  3378  0384  2B86               	goto	u3160
  3379  0385                     u3161:
  3380  0385  2BA4               	goto	l3408
  3381  0386                     u3160:
  3382                           	line	430
  3383                           	
  3384  0386                     l3402:	
  3385                           ;LED_Ticker.c: 430: PORTC = column[start];
  3386  0386  0879               	movf	(display@start+1),w
  3387  0387  00FB               	movwf	(??_display+0)+0+1
  3388  0388  0878               	movf	(display@start),w
  3389  0389  00FA               	movwf	(??_display+0)+0
  3390  038A  3001               	movlw	01h
  3391  038B  00FF               	movwf	btemp+1
  3392  038C                     u3175:
  3393  038C  1003               	clrc
  3394  038D  0DFA               	rlf	(??_display+0)+0,f
  3395  038E  0DFB               	rlf	(??_display+0)+1,f
  3396  038F  0BFF               	decfsz	btemp+1,f
  3397  0390  2B8C               	goto	u3175
  3398  0391  308A               	movlw	high(_column|8000h)
  3399  0392  077B               	addwf	1+(??_display+0)+0,w
  3400  0393  1283               	bcf	status, 5	;RP0=0, select bank0
  3401  0394  1303               	bcf	status, 6	;RP1=0, select bank0
  3402  0395  00FF               	movwf	btemp+1
  3403  0396  3082               	movlw	low(_column|8000h)
  3404  0397  077A               	addwf	0+(??_display+0)+0,w
  3405  0398  0084               	movwf	fsr0
  3406  0399  1803               	skipnc
  3407  039A  0AFF               	incf	btemp+1,f
  3408  039B  120A  158A  2000   	fcall	stringtab
              120A  118A         
  3409  03A0  0087               	movwf	(7)	;volatile
  3410                           	line	431
  3411                           	
  3412  03A1                     l3404:	
  3413                           ;LED_Ticker.c: 431: PORTD |= 0b00010000;
  3414  03A1  1608               	bsf	(8)+(4/8),(4)&7	;volatile
  3415                           	line	432
  3416                           	
  3417  03A2                     l3406:	
  3418                           ;LED_Ticker.c: 432: PORTA = 0x00;
  3419  03A2  0185               	clrf	(5)	;volatile
  3420                           	line	433
  3421                           ;LED_Ticker.c: 433: }
  3422  03A3  2BD6               	goto	l3418
  3423                           	line	434
  3424                           	
  3425  03A4                     l718:	
  3426                           	
  3427  03A4                     l3408:	
  3428                           ;LED_Ticker.c: 434: else if (start < 66){
  3429  03A4  0879               	movf	(display@start+1),w
  3430  03A5  3A80               	xorlw	80h
  3431  03A6  00FF               	movwf	btemp+1
  3432  03A7  3080               	movlw	(high(042h))^80h
  3433  03A8  027F               	subwf	btemp+1,w
  3434  03A9  1D03               	skipz
  3435  03AA  2BAD               	goto	u3185
  3436  03AB  3042               	movlw	low(042h)
  3437  03AC  0278               	subwf	(display@start),w
  3438  03AD                     u3185:
  3439                           
  3440  03AD  1803               	skipnc
  3441  03AE  2BB0               	goto	u3181
  3442  03AF  2BB1               	goto	u3180
  3443  03B0                     u3181:
  3444  03B0  2BCF               	goto	l3416
  3445  03B1                     u3180:
  3446                           	line	435
  3447                           	
  3448  03B1                     l3410:	
  3449                           ;LED_Ticker.c: 435: PORTC = column[start];
  3450  03B1  0879               	movf	(display@start+1),w
  3451  03B2  00FB               	movwf	(??_display+0)+0+1
  3452  03B3  0878               	movf	(display@start),w
  3453  03B4  00FA               	movwf	(??_display+0)+0
  3454  03B5  3001               	movlw	01h
  3455  03B6  00FF               	movwf	btemp+1
  3456  03B7                     u3195:
  3457  03B7  1003               	clrc
  3458  03B8  0DFA               	rlf	(??_display+0)+0,f
  3459  03B9  0DFB               	rlf	(??_display+0)+1,f
  3460  03BA  0BFF               	decfsz	btemp+1,f
  3461  03BB  2BB7               	goto	u3195
  3462  03BC  308A               	movlw	high(_column|8000h)
  3463  03BD  077B               	addwf	1+(??_display+0)+0,w
  3464  03BE  1283               	bcf	status, 5	;RP0=0, select bank0
  3465  03BF  1303               	bcf	status, 6	;RP1=0, select bank0
  3466  03C0  00FF               	movwf	btemp+1
  3467  03C1  3082               	movlw	low(_column|8000h)
  3468  03C2  077A               	addwf	0+(??_display+0)+0,w
  3469  03C3  0084               	movwf	fsr0
  3470  03C4  1803               	skipnc
  3471  03C5  0AFF               	incf	btemp+1,f
  3472  03C6  120A  158A  2000   	fcall	stringtab
              120A  118A         
  3473  03CB  0087               	movwf	(7)	;volatile
  3474                           	line	436
  3475                           	
  3476  03CC                     l3412:	
  3477                           ;LED_Ticker.c: 436: PORTD |= 0b00001000;
  3478  03CC  1588               	bsf	(8)+(3/8),(3)&7	;volatile
  3479                           	line	437
  3480                           	
  3481  03CD                     l3414:	
  3482                           ;LED_Ticker.c: 437: PORTA = 0x00;
  3483  03CD  0185               	clrf	(5)	;volatile
  3484                           	line	438
  3485                           ;LED_Ticker.c: 438: }
  3486  03CE  2BD6               	goto	l3418
  3487                           	line	439
  3488                           	
  3489  03CF                     l720:	
  3490                           	line	440
  3491                           	
  3492  03CF                     l3416:	
  3493                           ;LED_Ticker.c: 439: else{
  3494                           ;LED_Ticker.c: 440: PORTB = 0x00;
  3495  03CF  1283               	bcf	status, 5	;RP0=0, select bank0
  3496  03D0  1303               	bcf	status, 6	;RP1=0, select bank0
  3497  03D1  0186               	clrf	(6)	;volatile
  3498  03D2  2BD6               	goto	l3418
  3499                           	line	441
  3500                           	
  3501  03D3                     l721:	
  3502  03D3  2BD6               	goto	l3418
  3503                           	
  3504  03D4                     l719:	
  3505  03D4  2BD6               	goto	l3418
  3506                           	
  3507  03D5                     l717:	
  3508  03D5  2BD6               	goto	l3418
  3509                           	
  3510  03D6                     l715:	
  3511                           	line	442
  3512                           	
  3513  03D6                     l3418:	
  3514                           ;LED_Ticker.c: 441: }
  3515                           ;LED_Ticker.c: 442: start++;
  3516  03D6  3001               	movlw	low(01h)
  3517  03D7  07F8               	addwf	(display@start),f
  3518  03D8  1803               	skipnc
  3519  03D9  0AF9               	incf	(display@start+1),f
  3520  03DA  3000               	movlw	high(01h)
  3521  03DB  07F9               	addwf	(display@start+1),f
  3522                           	line	443
  3523                           	
  3524  03DC                     l3420:	
  3525                           ;LED_Ticker.c: 443: PORTB = characters[charNum][4];
  3526  03DC  0877               	movf	(display@charNum+1),w
  3527  03DD  01F1               	clrf	(?___wmul+1)
  3528  03DE  07F1               	addwf	(?___wmul+1)
  3529  03DF  0876               	movf	(display@charNum),w
  3530  03E0  01F0               	clrf	(?___wmul)
  3531  03E1  07F0               	addwf	(?___wmul)
  3532                           
  3533  03E2  3018               	movlw	low(018h)
  3534  03E3  00F2               	movwf	0+(?___wmul)+02h
  3535  03E4  3000               	movlw	high(018h)
  3536  03E5  00F3               	movwf	(0+(?___wmul)+02h)+1
  3537  03E6  120A  118A  208B   	fcall	___wmul
              120A  118A         
  3538  03EB  0870               	movf	(0+(?___wmul)),w
  3539  03EC  3E08               	addlw	low(08h)
  3540  03ED  00FA               	movwf	(??_display+0)+0
  3541  03EE  0871               	movf	(1+(?___wmul)),w
  3542  03EF  1803               	skipnc
  3543  03F0  3E01               	addlw	1
  3544  03F1  3E00               	addlw	high(08h)
  3545  03F2  00FB               	movwf	1+(??_display+0)+0
  3546  03F3  3088               	movlw	high(_characters|8000h)
  3547  03F4  077B               	addwf	1+(??_display+0)+0,w
  3548  03F5  1283               	bcf	status, 5	;RP0=0, select bank0
  3549  03F6  1303               	bcf	status, 6	;RP1=0, select bank0
  3550  03F7  00FF               	movwf	btemp+1
  3551  03F8  3012               	movlw	low(_characters|8000h)
  3552  03F9  077A               	addwf	0+(??_display+0)+0,w
  3553  03FA  0084               	movwf	fsr0
  3554  03FB  1803               	skipnc
  3555  03FC  0AFF               	incf	btemp+1,f
  3556  03FD  120A  158A  2000   	fcall	stringtab
              120A  118A         
  3557  0402  0086               	movwf	(6)	;volatile
  3558                           	line	444
  3559                           	
  3560  0403                     l3422:	
  3561                           ;LED_Ticker.c: 444: PORTD |= characters[charNum][5];
  3562  0403  0877               	movf	(display@charNum+1),w
  3563  0404  01F1               	clrf	(?___wmul+1)
  3564  0405  07F1               	addwf	(?___wmul+1)
  3565  0406  0876               	movf	(display@charNum),w
  3566  0407  01F0               	clrf	(?___wmul)
  3567  0408  07F0               	addwf	(?___wmul)
  3568                           
  3569  0409  3018               	movlw	low(018h)
  3570  040A  00F2               	movwf	0+(?___wmul)+02h
  3571  040B  3000               	movlw	high(018h)
  3572  040C  00F3               	movwf	(0+(?___wmul)+02h)+1
  3573  040D  120A  118A  208B   	fcall	___wmul
              120A  118A         
  3574  0412  0870               	movf	(0+(?___wmul)),w
  3575  0413  3E0A               	addlw	low(0Ah)
  3576  0414  00FA               	movwf	(??_display+0)+0
  3577  0415  0871               	movf	(1+(?___wmul)),w
  3578  0416  1803               	skipnc
  3579  0417  3E01               	addlw	1
  3580  0418  3E00               	addlw	high(0Ah)
  3581  0419  00FB               	movwf	1+(??_display+0)+0
  3582  041A  3088               	movlw	high(_characters|8000h)
  3583  041B  077B               	addwf	1+(??_display+0)+0,w
  3584  041C  1283               	bcf	status, 5	;RP0=0, select bank0
  3585  041D  1303               	bcf	status, 6	;RP1=0, select bank0
  3586  041E  00FF               	movwf	btemp+1
  3587  041F  3012               	movlw	low(_characters|8000h)
  3588  0420  077A               	addwf	0+(??_display+0)+0,w
  3589  0421  0084               	movwf	fsr0
  3590  0422  1803               	skipnc
  3591  0423  0AFF               	incf	btemp+1,f
  3592  0424  120A  158A  2000   	fcall	stringtab
              120A  118A         
  3593  0429  00FC               	movwf	(??_display+2)+0
  3594  042A  087C               	movf	(??_display+2)+0,w
  3595  042B  0488               	iorwf	(8),f	;volatile
  3596                           	line	445
  3597                           	
  3598  042C                     l3424:	
  3599                           ;LED_Ticker.c: 445: for(i=0; i<20; i++){;}
  3600  042C  01A0               	clrf	(display@i)
  3601  042D  01A1               	clrf	(display@i+1)
  3602                           	
  3603  042E                     l3426:	
  3604  042E  0821               	movf	(display@i+1),w
  3605  042F  3A80               	xorlw	80h
  3606  0430  00FF               	movwf	btemp+1
  3607  0431  3080               	movlw	(high(014h))^80h
  3608  0432  027F               	subwf	btemp+1,w
  3609  0433  1D03               	skipz
  3610  0434  2C37               	goto	u3205
  3611  0435  3014               	movlw	low(014h)
  3612  0436  0220               	subwf	(display@i),w
  3613  0437                     u3205:
  3614                           
  3615  0437  1C03               	skipc
  3616  0438  2C3A               	goto	u3201
  3617  0439  2C3B               	goto	u3200
  3618  043A                     u3201:
  3619  043A  2C3D               	goto	l3430
  3620  043B                     u3200:
  3621  043B  2C53               	goto	l3434
  3622                           	
  3623  043C                     l3428:	
  3624  043C  2C53               	goto	l3434
  3625                           	
  3626  043D                     l722:	
  3627                           	
  3628  043D                     l3430:	
  3629  043D  3001               	movlw	low(01h)
  3630  043E  1283               	bcf	status, 5	;RP0=0, select bank0
  3631  043F  1303               	bcf	status, 6	;RP1=0, select bank0
  3632  0440  07A0               	addwf	(display@i),f
  3633  0441  1803               	skipnc
  3634  0442  0AA1               	incf	(display@i+1),f
  3635  0443  3000               	movlw	high(01h)
  3636  0444  07A1               	addwf	(display@i+1),f
  3637                           	
  3638  0445                     l3432:	
  3639  0445  0821               	movf	(display@i+1),w
  3640  0446  3A80               	xorlw	80h
  3641  0447  00FF               	movwf	btemp+1
  3642  0448  3080               	movlw	(high(014h))^80h
  3643  0449  027F               	subwf	btemp+1,w
  3644  044A  1D03               	skipz
  3645  044B  2C4E               	goto	u3215
  3646  044C  3014               	movlw	low(014h)
  3647  044D  0220               	subwf	(display@i),w
  3648  044E                     u3215:
  3649                           
  3650  044E  1C03               	skipc
  3651  044F  2C51               	goto	u3211
  3652  0450  2C52               	goto	u3210
  3653  0451                     u3211:
  3654  0451  2C3D               	goto	l3430
  3655  0452                     u3210:
  3656  0452  2C53               	goto	l3434
  3657                           	
  3658  0453                     l723:	
  3659                           	line	446
  3660                           	
  3661  0453                     l3434:	
  3662                           ;LED_Ticker.c: 446: PORTA = 0x00;
  3663  0453  1283               	bcf	status, 5	;RP0=0, select bank0
  3664  0454  1303               	bcf	status, 6	;RP1=0, select bank0
  3665  0455  0185               	clrf	(5)	;volatile
  3666                           	line	447
  3667                           ;LED_Ticker.c: 447: PORTB = 0x00;
  3668  0456  0186               	clrf	(6)	;volatile
  3669                           	line	448
  3670                           ;LED_Ticker.c: 448: PORTC = 0x00;
  3671  0457  0187               	clrf	(7)	;volatile
  3672                           	line	449
  3673                           ;LED_Ticker.c: 449: PORTD = 0X00;
  3674  0458  0188               	clrf	(8)	;volatile
  3675                           	line	450
  3676                           ;LED_Ticker.c: 450: PORTE = 0x00;
  3677  0459  0189               	clrf	(9)	;volatile
  3678                           	line	457
  3679                           	
  3680  045A                     l3436:	
  3681                           ;LED_Ticker.c: 457: if((start < 21)){
  3682  045A  0879               	movf	(display@start+1),w
  3683  045B  3A80               	xorlw	80h
  3684  045C  00FF               	movwf	btemp+1
  3685  045D  3080               	movlw	(high(015h))^80h
  3686  045E  027F               	subwf	btemp+1,w
  3687  045F  1D03               	skipz
  3688  0460  2C63               	goto	u3225
  3689  0461  3015               	movlw	low(015h)
  3690  0462  0278               	subwf	(display@start),w
  3691  0463                     u3225:
  3692                           
  3693  0463  1803               	skipnc
  3694  0464  2C66               	goto	u3221
  3695  0465  2C67               	goto	u3220
  3696  0466                     u3221:
  3697  0466  2C85               	goto	l3444
  3698  0467                     u3220:
  3699                           	line	458
  3700                           	
  3701  0467                     l3438:	
  3702                           ;LED_Ticker.c: 458: PORTC = column[start];
  3703  0467  0879               	movf	(display@start+1),w
  3704  0468  00FB               	movwf	(??_display+0)+0+1
  3705  0469  0878               	movf	(display@start),w
  3706  046A  00FA               	movwf	(??_display+0)+0
  3707  046B  3001               	movlw	01h
  3708  046C  00FF               	movwf	btemp+1
  3709  046D                     u3235:
  3710  046D  1003               	clrc
  3711  046E  0DFA               	rlf	(??_display+0)+0,f
  3712  046F  0DFB               	rlf	(??_display+0)+1,f
  3713  0470  0BFF               	decfsz	btemp+1,f
  3714  0471  2C6D               	goto	u3235
  3715  0472  308A               	movlw	high(_column|8000h)
  3716  0473  077B               	addwf	1+(??_display+0)+0,w
  3717  0474  1283               	bcf	status, 5	;RP0=0, select bank0
  3718  0475  1303               	bcf	status, 6	;RP1=0, select bank0
  3719  0476  00FF               	movwf	btemp+1
  3720  0477  3082               	movlw	low(_column|8000h)
  3721  0478  077A               	addwf	0+(??_display+0)+0,w
  3722  0479  0084               	movwf	fsr0
  3723  047A  1803               	skipnc
  3724  047B  0AFF               	incf	btemp+1,f
  3725  047C  120A  158A  2000   	fcall	stringtab
              120A  118A         
  3726  0481  0087               	movwf	(7)	;volatile
  3727                           	line	459
  3728                           	
  3729  0482                     l3440:	
  3730                           ;LED_Ticker.c: 459: PORTD |= 0b01000000;
  3731  0482  1708               	bsf	(8)+(6/8),(6)&7	;volatile
  3732                           	line	460
  3733                           	
  3734  0483                     l3442:	
  3735                           ;LED_Ticker.c: 460: PORTA = 0x00;
  3736  0483  0185               	clrf	(5)	;volatile
  3737                           	line	462
  3738                           ;LED_Ticker.c: 462: }
  3739  0484  2D0D               	goto	l3470
  3740                           	line	463
  3741                           	
  3742  0485                     l724:	
  3743                           	
  3744  0485                     l3444:	
  3745                           ;LED_Ticker.c: 463: else if (start < 36){
  3746  0485  0879               	movf	(display@start+1),w
  3747  0486  3A80               	xorlw	80h
  3748  0487  00FF               	movwf	btemp+1
  3749  0488  3080               	movlw	(high(024h))^80h
  3750  0489  027F               	subwf	btemp+1,w
  3751  048A  1D03               	skipz
  3752  048B  2C8E               	goto	u3245
  3753  048C  3024               	movlw	low(024h)
  3754  048D  0278               	subwf	(display@start),w
  3755  048E                     u3245:
  3756                           
  3757  048E  1803               	skipnc
  3758  048F  2C91               	goto	u3241
  3759  0490  2C92               	goto	u3240
  3760  0491                     u3241:
  3761  0491  2CB0               	goto	l3452
  3762  0492                     u3240:
  3763                           	line	464
  3764                           	
  3765  0492                     l3446:	
  3766                           ;LED_Ticker.c: 464: PORTC = column[start];
  3767  0492  0879               	movf	(display@start+1),w
  3768  0493  00FB               	movwf	(??_display+0)+0+1
  3769  0494  0878               	movf	(display@start),w
  3770  0495  00FA               	movwf	(??_display+0)+0
  3771  0496  3001               	movlw	01h
  3772  0497  00FF               	movwf	btemp+1
  3773  0498                     u3255:
  3774  0498  1003               	clrc
  3775  0499  0DFA               	rlf	(??_display+0)+0,f
  3776  049A  0DFB               	rlf	(??_display+0)+1,f
  3777  049B  0BFF               	decfsz	btemp+1,f
  3778  049C  2C98               	goto	u3255
  3779  049D  308A               	movlw	high(_column|8000h)
  3780  049E  077B               	addwf	1+(??_display+0)+0,w
  3781  049F  1283               	bcf	status, 5	;RP0=0, select bank0
  3782  04A0  1303               	bcf	status, 6	;RP1=0, select bank0
  3783  04A1  00FF               	movwf	btemp+1
  3784  04A2  3082               	movlw	low(_column|8000h)
  3785  04A3  077A               	addwf	0+(??_display+0)+0,w
  3786  04A4  0084               	movwf	fsr0
  3787  04A5  1803               	skipnc
  3788  04A6  0AFF               	incf	btemp+1,f
  3789  04A7  120A  158A  2000   	fcall	stringtab
              120A  118A         
  3790  04AC  0087               	movwf	(7)	;volatile
  3791                           	line	465
  3792                           	
  3793  04AD                     l3448:	
  3794                           ;LED_Ticker.c: 465: PORTD |= 0b00100000;
  3795  04AD  1688               	bsf	(8)+(5/8),(5)&7	;volatile
  3796                           	line	466
  3797                           	
  3798  04AE                     l3450:	
  3799                           ;LED_Ticker.c: 466: PORTA = 0x00;
  3800  04AE  0185               	clrf	(5)	;volatile
  3801                           	line	468
  3802                           ;LED_Ticker.c: 468: }
  3803  04AF  2D0D               	goto	l3470
  3804                           	line	469
  3805                           	
  3806  04B0                     l726:	
  3807                           	
  3808  04B0                     l3452:	
  3809                           ;LED_Ticker.c: 469: else if (start < 51){
  3810  04B0  0879               	movf	(display@start+1),w
  3811  04B1  3A80               	xorlw	80h
  3812  04B2  00FF               	movwf	btemp+1
  3813  04B3  3080               	movlw	(high(033h))^80h
  3814  04B4  027F               	subwf	btemp+1,w
  3815  04B5  1D03               	skipz
  3816  04B6  2CB9               	goto	u3265
  3817  04B7  3033               	movlw	low(033h)
  3818  04B8  0278               	subwf	(display@start),w
  3819  04B9                     u3265:
  3820                           
  3821  04B9  1803               	skipnc
  3822  04BA  2CBC               	goto	u3261
  3823  04BB  2CBD               	goto	u3260
  3824  04BC                     u3261:
  3825  04BC  2CDB               	goto	l3460
  3826  04BD                     u3260:
  3827                           	line	470
  3828                           	
  3829  04BD                     l3454:	
  3830                           ;LED_Ticker.c: 470: PORTC = column[start];
  3831  04BD  0879               	movf	(display@start+1),w
  3832  04BE  00FB               	movwf	(??_display+0)+0+1
  3833  04BF  0878               	movf	(display@start),w
  3834  04C0  00FA               	movwf	(??_display+0)+0
  3835  04C1  3001               	movlw	01h
  3836  04C2  00FF               	movwf	btemp+1
  3837  04C3                     u3275:
  3838  04C3  1003               	clrc
  3839  04C4  0DFA               	rlf	(??_display+0)+0,f
  3840  04C5  0DFB               	rlf	(??_display+0)+1,f
  3841  04C6  0BFF               	decfsz	btemp+1,f
  3842  04C7  2CC3               	goto	u3275
  3843  04C8  308A               	movlw	high(_column|8000h)
  3844  04C9  077B               	addwf	1+(??_display+0)+0,w
  3845  04CA  1283               	bcf	status, 5	;RP0=0, select bank0
  3846  04CB  1303               	bcf	status, 6	;RP1=0, select bank0
  3847  04CC  00FF               	movwf	btemp+1
  3848  04CD  3082               	movlw	low(_column|8000h)
  3849  04CE  077A               	addwf	0+(??_display+0)+0,w
  3850  04CF  0084               	movwf	fsr0
  3851  04D0  1803               	skipnc
  3852  04D1  0AFF               	incf	btemp+1,f
  3853  04D2  120A  158A  2000   	fcall	stringtab
              120A  118A         
  3854  04D7  0087               	movwf	(7)	;volatile
  3855                           	line	471
  3856                           	
  3857  04D8                     l3456:	
  3858                           ;LED_Ticker.c: 471: PORTD |= 0b00010000;
  3859  04D8  1608               	bsf	(8)+(4/8),(4)&7	;volatile
  3860                           	line	472
  3861                           	
  3862  04D9                     l3458:	
  3863                           ;LED_Ticker.c: 472: PORTA = 0x00;
  3864  04D9  0185               	clrf	(5)	;volatile
  3865                           	line	473
  3866                           ;LED_Ticker.c: 473: }
  3867  04DA  2D0D               	goto	l3470
  3868                           	line	474
  3869                           	
  3870  04DB                     l728:	
  3871                           	
  3872  04DB                     l3460:	
  3873                           ;LED_Ticker.c: 474: else if (start < 66){
  3874  04DB  0879               	movf	(display@start+1),w
  3875  04DC  3A80               	xorlw	80h
  3876  04DD  00FF               	movwf	btemp+1
  3877  04DE  3080               	movlw	(high(042h))^80h
  3878  04DF  027F               	subwf	btemp+1,w
  3879  04E0  1D03               	skipz
  3880  04E1  2CE4               	goto	u3285
  3881  04E2  3042               	movlw	low(042h)
  3882  04E3  0278               	subwf	(display@start),w
  3883  04E4                     u3285:
  3884                           
  3885  04E4  1803               	skipnc
  3886  04E5  2CE7               	goto	u3281
  3887  04E6  2CE8               	goto	u3280
  3888  04E7                     u3281:
  3889  04E7  2D06               	goto	l3468
  3890  04E8                     u3280:
  3891                           	line	475
  3892                           	
  3893  04E8                     l3462:	
  3894                           ;LED_Ticker.c: 475: PORTC = column[start];
  3895  04E8  0879               	movf	(display@start+1),w
  3896  04E9  00FB               	movwf	(??_display+0)+0+1
  3897  04EA  0878               	movf	(display@start),w
  3898  04EB  00FA               	movwf	(??_display+0)+0
  3899  04EC  3001               	movlw	01h
  3900  04ED  00FF               	movwf	btemp+1
  3901  04EE                     u3295:
  3902  04EE  1003               	clrc
  3903  04EF  0DFA               	rlf	(??_display+0)+0,f
  3904  04F0  0DFB               	rlf	(??_display+0)+1,f
  3905  04F1  0BFF               	decfsz	btemp+1,f
  3906  04F2  2CEE               	goto	u3295
  3907  04F3  308A               	movlw	high(_column|8000h)
  3908  04F4  077B               	addwf	1+(??_display+0)+0,w
  3909  04F5  1283               	bcf	status, 5	;RP0=0, select bank0
  3910  04F6  1303               	bcf	status, 6	;RP1=0, select bank0
  3911  04F7  00FF               	movwf	btemp+1
  3912  04F8  3082               	movlw	low(_column|8000h)
  3913  04F9  077A               	addwf	0+(??_display+0)+0,w
  3914  04FA  0084               	movwf	fsr0
  3915  04FB  1803               	skipnc
  3916  04FC  0AFF               	incf	btemp+1,f
  3917  04FD  120A  158A  2000   	fcall	stringtab
              120A  118A         
  3918  0502  0087               	movwf	(7)	;volatile
  3919                           	line	476
  3920                           	
  3921  0503                     l3464:	
  3922                           ;LED_Ticker.c: 476: PORTD |= 0b00001000;
  3923  0503  1588               	bsf	(8)+(3/8),(3)&7	;volatile
  3924                           	line	477
  3925                           	
  3926  0504                     l3466:	
  3927                           ;LED_Ticker.c: 477: PORTA = 0x00;
  3928  0504  0185               	clrf	(5)	;volatile
  3929                           	line	478
  3930                           ;LED_Ticker.c: 478: }
  3931  0505  2D0D               	goto	l3470
  3932                           	line	479
  3933                           	
  3934  0506                     l730:	
  3935                           	line	480
  3936                           	
  3937  0506                     l3468:	
  3938                           ;LED_Ticker.c: 479: else{
  3939                           ;LED_Ticker.c: 480: PORTB = 0x00;
  3940  0506  1283               	bcf	status, 5	;RP0=0, select bank0
  3941  0507  1303               	bcf	status, 6	;RP1=0, select bank0
  3942  0508  0186               	clrf	(6)	;volatile
  3943  0509  2D0D               	goto	l3470
  3944                           	line	481
  3945                           	
  3946  050A                     l731:	
  3947  050A  2D0D               	goto	l3470
  3948                           	
  3949  050B                     l729:	
  3950  050B  2D0D               	goto	l3470
  3951                           	
  3952  050C                     l727:	
  3953  050C  2D0D               	goto	l3470
  3954                           	
  3955  050D                     l725:	
  3956                           	line	482
  3957                           	
  3958  050D                     l3470:	
  3959                           ;LED_Ticker.c: 481: }
  3960                           ;LED_Ticker.c: 482: start++;
  3961  050D  3001               	movlw	low(01h)
  3962  050E  07F8               	addwf	(display@start),f
  3963  050F  1803               	skipnc
  3964  0510  0AF9               	incf	(display@start+1),f
  3965  0511  3000               	movlw	high(01h)
  3966  0512  07F9               	addwf	(display@start+1),f
  3967                           	line	483
  3968                           	
  3969  0513                     l3472:	
  3970                           ;LED_Ticker.c: 483: PORTB = characters[charNum][6];
  3971  0513  0877               	movf	(display@charNum+1),w
  3972  0514  01F1               	clrf	(?___wmul+1)
  3973  0515  07F1               	addwf	(?___wmul+1)
  3974  0516  0876               	movf	(display@charNum),w
  3975  0517  01F0               	clrf	(?___wmul)
  3976  0518  07F0               	addwf	(?___wmul)
  3977                           
  3978  0519  3018               	movlw	low(018h)
  3979  051A  00F2               	movwf	0+(?___wmul)+02h
  3980  051B  3000               	movlw	high(018h)
  3981  051C  00F3               	movwf	(0+(?___wmul)+02h)+1
  3982  051D  120A  118A  208B   	fcall	___wmul
              120A  118A         
  3983  0522  0870               	movf	(0+(?___wmul)),w
  3984  0523  3E0C               	addlw	low(0Ch)
  3985  0524  00FA               	movwf	(??_display+0)+0
  3986  0525  0871               	movf	(1+(?___wmul)),w
  3987  0526  1803               	skipnc
  3988  0527  3E01               	addlw	1
  3989  0528  3E00               	addlw	high(0Ch)
  3990  0529  00FB               	movwf	1+(??_display+0)+0
  3991  052A  3088               	movlw	high(_characters|8000h)
  3992  052B  077B               	addwf	1+(??_display+0)+0,w
  3993  052C  1283               	bcf	status, 5	;RP0=0, select bank0
  3994  052D  1303               	bcf	status, 6	;RP1=0, select bank0
  3995  052E  00FF               	movwf	btemp+1
  3996  052F  3012               	movlw	low(_characters|8000h)
  3997  0530  077A               	addwf	0+(??_display+0)+0,w
  3998  0531  0084               	movwf	fsr0
  3999  0532  1803               	skipnc
  4000  0533  0AFF               	incf	btemp+1,f
  4001  0534  120A  158A  2000   	fcall	stringtab
              120A  118A         
  4002  0539  0086               	movwf	(6)	;volatile
  4003                           	line	484
  4004                           	
  4005  053A                     l3474:	
  4006                           ;LED_Ticker.c: 484: PORTD |= characters[charNum][7];
  4007  053A  0877               	movf	(display@charNum+1),w
  4008  053B  01F1               	clrf	(?___wmul+1)
  4009  053C  07F1               	addwf	(?___wmul+1)
  4010  053D  0876               	movf	(display@charNum),w
  4011  053E  01F0               	clrf	(?___wmul)
  4012  053F  07F0               	addwf	(?___wmul)
  4013                           
  4014  0540  3018               	movlw	low(018h)
  4015  0541  00F2               	movwf	0+(?___wmul)+02h
  4016  0542  3000               	movlw	high(018h)
  4017  0543  00F3               	movwf	(0+(?___wmul)+02h)+1
  4018  0544  120A  118A  208B   	fcall	___wmul
              120A  118A         
  4019  0549  0870               	movf	(0+(?___wmul)),w
  4020  054A  3E0E               	addlw	low(0Eh)
  4021  054B  00FA               	movwf	(??_display+0)+0
  4022  054C  0871               	movf	(1+(?___wmul)),w
  4023  054D  1803               	skipnc
  4024  054E  3E01               	addlw	1
  4025  054F  3E00               	addlw	high(0Eh)
  4026  0550  00FB               	movwf	1+(??_display+0)+0
  4027  0551  3088               	movlw	high(_characters|8000h)
  4028  0552  077B               	addwf	1+(??_display+0)+0,w
  4029  0553  1283               	bcf	status, 5	;RP0=0, select bank0
  4030  0554  1303               	bcf	status, 6	;RP1=0, select bank0
  4031  0555  00FF               	movwf	btemp+1
  4032  0556  3012               	movlw	low(_characters|8000h)
  4033  0557  077A               	addwf	0+(??_display+0)+0,w
  4034  0558  0084               	movwf	fsr0
  4035  0559  1803               	skipnc
  4036  055A  0AFF               	incf	btemp+1,f
  4037  055B  120A  158A  2000   	fcall	stringtab
              120A  118A         
  4038  0560  00FC               	movwf	(??_display+2)+0
  4039  0561  087C               	movf	(??_display+2)+0,w
  4040  0562  0488               	iorwf	(8),f	;volatile
  4041                           	line	485
  4042                           	
  4043  0563                     l3476:	
  4044                           ;LED_Ticker.c: 485: for(i=0; i<20; i++){;}
  4045  0563  01A0               	clrf	(display@i)
  4046  0564  01A1               	clrf	(display@i+1)
  4047                           	
  4048  0565                     l3478:	
  4049  0565  0821               	movf	(display@i+1),w
  4050  0566  3A80               	xorlw	80h
  4051  0567  00FF               	movwf	btemp+1
  4052  0568  3080               	movlw	(high(014h))^80h
  4053  0569  027F               	subwf	btemp+1,w
  4054  056A  1D03               	skipz
  4055  056B  2D6E               	goto	u3305
  4056  056C  3014               	movlw	low(014h)
  4057  056D  0220               	subwf	(display@i),w
  4058  056E                     u3305:
  4059                           
  4060  056E  1C03               	skipc
  4061  056F  2D71               	goto	u3301
  4062  0570  2D72               	goto	u3300
  4063  0571                     u3301:
  4064  0571  2D74               	goto	l3482
  4065  0572                     u3300:
  4066  0572  2D8A               	goto	l3486
  4067                           	
  4068  0573                     l3480:	
  4069  0573  2D8A               	goto	l3486
  4070                           	
  4071  0574                     l732:	
  4072                           	
  4073  0574                     l3482:	
  4074  0574  3001               	movlw	low(01h)
  4075  0575  1283               	bcf	status, 5	;RP0=0, select bank0
  4076  0576  1303               	bcf	status, 6	;RP1=0, select bank0
  4077  0577  07A0               	addwf	(display@i),f
  4078  0578  1803               	skipnc
  4079  0579  0AA1               	incf	(display@i+1),f
  4080  057A  3000               	movlw	high(01h)
  4081  057B  07A1               	addwf	(display@i+1),f
  4082                           	
  4083  057C                     l3484:	
  4084  057C  0821               	movf	(display@i+1),w
  4085  057D  3A80               	xorlw	80h
  4086  057E  00FF               	movwf	btemp+1
  4087  057F  3080               	movlw	(high(014h))^80h
  4088  0580  027F               	subwf	btemp+1,w
  4089  0581  1D03               	skipz
  4090  0582  2D85               	goto	u3315
  4091  0583  3014               	movlw	low(014h)
  4092  0584  0220               	subwf	(display@i),w
  4093  0585                     u3315:
  4094                           
  4095  0585  1C03               	skipc
  4096  0586  2D88               	goto	u3311
  4097  0587  2D89               	goto	u3310
  4098  0588                     u3311:
  4099  0588  2D74               	goto	l3482
  4100  0589                     u3310:
  4101  0589  2D8A               	goto	l3486
  4102                           	
  4103  058A                     l733:	
  4104                           	line	486
  4105                           	
  4106  058A                     l3486:	
  4107                           ;LED_Ticker.c: 486: PORTA = 0x00;
  4108  058A  1283               	bcf	status, 5	;RP0=0, select bank0
  4109  058B  1303               	bcf	status, 6	;RP1=0, select bank0
  4110  058C  0185               	clrf	(5)	;volatile
  4111                           	line	487
  4112                           ;LED_Ticker.c: 487: PORTB = 0x00;
  4113  058D  0186               	clrf	(6)	;volatile
  4114                           	line	488
  4115                           ;LED_Ticker.c: 488: PORTC = 0x00;
  4116  058E  0187               	clrf	(7)	;volatile
  4117                           	line	489
  4118                           ;LED_Ticker.c: 489: PORTD = 0x00;
  4119  058F  0188               	clrf	(8)	;volatile
  4120                           	line	490
  4121                           ;LED_Ticker.c: 490: PORTE = 0x00;
  4122  0590  0189               	clrf	(9)	;volatile
  4123                           	line	498
  4124                           	
  4125  0591                     l3488:	
  4126                           ;LED_Ticker.c: 498: if((start < 21)){
  4127  0591  0879               	movf	(display@start+1),w
  4128  0592  3A80               	xorlw	80h
  4129  0593  00FF               	movwf	btemp+1
  4130  0594  3080               	movlw	(high(015h))^80h
  4131  0595  027F               	subwf	btemp+1,w
  4132  0596  1D03               	skipz
  4133  0597  2D9A               	goto	u3325
  4134  0598  3015               	movlw	low(015h)
  4135  0599  0278               	subwf	(display@start),w
  4136  059A                     u3325:
  4137                           
  4138  059A  1803               	skipnc
  4139  059B  2D9D               	goto	u3321
  4140  059C  2D9E               	goto	u3320
  4141  059D                     u3321:
  4142  059D  2DBC               	goto	l3496
  4143  059E                     u3320:
  4144                           	line	499
  4145                           	
  4146  059E                     l3490:	
  4147                           ;LED_Ticker.c: 499: PORTC = column[start];
  4148  059E  0879               	movf	(display@start+1),w
  4149  059F  00FB               	movwf	(??_display+0)+0+1
  4150  05A0  0878               	movf	(display@start),w
  4151  05A1  00FA               	movwf	(??_display+0)+0
  4152  05A2  3001               	movlw	01h
  4153  05A3  00FF               	movwf	btemp+1
  4154  05A4                     u3335:
  4155  05A4  1003               	clrc
  4156  05A5  0DFA               	rlf	(??_display+0)+0,f
  4157  05A6  0DFB               	rlf	(??_display+0)+1,f
  4158  05A7  0BFF               	decfsz	btemp+1,f
  4159  05A8  2DA4               	goto	u3335
  4160  05A9  308A               	movlw	high(_column|8000h)
  4161  05AA  077B               	addwf	1+(??_display+0)+0,w
  4162  05AB  1283               	bcf	status, 5	;RP0=0, select bank0
  4163  05AC  1303               	bcf	status, 6	;RP1=0, select bank0
  4164  05AD  00FF               	movwf	btemp+1
  4165  05AE  3082               	movlw	low(_column|8000h)
  4166  05AF  077A               	addwf	0+(??_display+0)+0,w
  4167  05B0  0084               	movwf	fsr0
  4168  05B1  1803               	skipnc
  4169  05B2  0AFF               	incf	btemp+1,f
  4170  05B3  120A  158A  2000   	fcall	stringtab
              120A  118A         
  4171  05B8  0087               	movwf	(7)	;volatile
  4172                           	line	500
  4173                           	
  4174  05B9                     l3492:	
  4175                           ;LED_Ticker.c: 500: PORTD |= 0b01000000;
  4176  05B9  1708               	bsf	(8)+(6/8),(6)&7	;volatile
  4177                           	line	501
  4178                           	
  4179  05BA                     l3494:	
  4180                           ;LED_Ticker.c: 501: PORTA = 0x00;
  4181  05BA  0185               	clrf	(5)	;volatile
  4182                           	line	503
  4183                           ;LED_Ticker.c: 503: }
  4184  05BB  2E44               	goto	l3522
  4185                           	line	504
  4186                           	
  4187  05BC                     l734:	
  4188                           	
  4189  05BC                     l3496:	
  4190                           ;LED_Ticker.c: 504: else if (start < 36){
  4191  05BC  0879               	movf	(display@start+1),w
  4192  05BD  3A80               	xorlw	80h
  4193  05BE  00FF               	movwf	btemp+1
  4194  05BF  3080               	movlw	(high(024h))^80h
  4195  05C0  027F               	subwf	btemp+1,w
  4196  05C1  1D03               	skipz
  4197  05C2  2DC5               	goto	u3345
  4198  05C3  3024               	movlw	low(024h)
  4199  05C4  0278               	subwf	(display@start),w
  4200  05C5                     u3345:
  4201                           
  4202  05C5  1803               	skipnc
  4203  05C6  2DC8               	goto	u3341
  4204  05C7  2DC9               	goto	u3340
  4205  05C8                     u3341:
  4206  05C8  2DE7               	goto	l3504
  4207  05C9                     u3340:
  4208                           	line	505
  4209                           	
  4210  05C9                     l3498:	
  4211                           ;LED_Ticker.c: 505: PORTC = column[start];
  4212  05C9  0879               	movf	(display@start+1),w
  4213  05CA  00FB               	movwf	(??_display+0)+0+1
  4214  05CB  0878               	movf	(display@start),w
  4215  05CC  00FA               	movwf	(??_display+0)+0
  4216  05CD  3001               	movlw	01h
  4217  05CE  00FF               	movwf	btemp+1
  4218  05CF                     u3355:
  4219  05CF  1003               	clrc
  4220  05D0  0DFA               	rlf	(??_display+0)+0,f
  4221  05D1  0DFB               	rlf	(??_display+0)+1,f
  4222  05D2  0BFF               	decfsz	btemp+1,f
  4223  05D3  2DCF               	goto	u3355
  4224  05D4  308A               	movlw	high(_column|8000h)
  4225  05D5  077B               	addwf	1+(??_display+0)+0,w
  4226  05D6  1283               	bcf	status, 5	;RP0=0, select bank0
  4227  05D7  1303               	bcf	status, 6	;RP1=0, select bank0
  4228  05D8  00FF               	movwf	btemp+1
  4229  05D9  3082               	movlw	low(_column|8000h)
  4230  05DA  077A               	addwf	0+(??_display+0)+0,w
  4231  05DB  0084               	movwf	fsr0
  4232  05DC  1803               	skipnc
  4233  05DD  0AFF               	incf	btemp+1,f
  4234  05DE  120A  158A  2000   	fcall	stringtab
              120A  118A         
  4235  05E3  0087               	movwf	(7)	;volatile
  4236                           	line	506
  4237                           	
  4238  05E4                     l3500:	
  4239                           ;LED_Ticker.c: 506: PORTD |= 0b00100000;
  4240  05E4  1688               	bsf	(8)+(5/8),(5)&7	;volatile
  4241                           	line	507
  4242                           	
  4243  05E5                     l3502:	
  4244                           ;LED_Ticker.c: 507: PORTA = 0x00;
  4245  05E5  0185               	clrf	(5)	;volatile
  4246                           	line	509
  4247                           ;LED_Ticker.c: 509: }
  4248  05E6  2E44               	goto	l3522
  4249                           	line	510
  4250                           	
  4251  05E7                     l736:	
  4252                           	
  4253  05E7                     l3504:	
  4254                           ;LED_Ticker.c: 510: else if (start < 51){
  4255  05E7  0879               	movf	(display@start+1),w
  4256  05E8  3A80               	xorlw	80h
  4257  05E9  00FF               	movwf	btemp+1
  4258  05EA  3080               	movlw	(high(033h))^80h
  4259  05EB  027F               	subwf	btemp+1,w
  4260  05EC  1D03               	skipz
  4261  05ED  2DF0               	goto	u3365
  4262  05EE  3033               	movlw	low(033h)
  4263  05EF  0278               	subwf	(display@start),w
  4264  05F0                     u3365:
  4265                           
  4266  05F0  1803               	skipnc
  4267  05F1  2DF3               	goto	u3361
  4268  05F2  2DF4               	goto	u3360
  4269  05F3                     u3361:
  4270  05F3  2E12               	goto	l3512
  4271  05F4                     u3360:
  4272                           	line	511
  4273                           	
  4274  05F4                     l3506:	
  4275                           ;LED_Ticker.c: 511: PORTC = column[start];
  4276  05F4  0879               	movf	(display@start+1),w
  4277  05F5  00FB               	movwf	(??_display+0)+0+1
  4278  05F6  0878               	movf	(display@start),w
  4279  05F7  00FA               	movwf	(??_display+0)+0
  4280  05F8  3001               	movlw	01h
  4281  05F9  00FF               	movwf	btemp+1
  4282  05FA                     u3375:
  4283  05FA  1003               	clrc
  4284  05FB  0DFA               	rlf	(??_display+0)+0,f
  4285  05FC  0DFB               	rlf	(??_display+0)+1,f
  4286  05FD  0BFF               	decfsz	btemp+1,f
  4287  05FE  2DFA               	goto	u3375
  4288  05FF  308A               	movlw	high(_column|8000h)
  4289  0600  077B               	addwf	1+(??_display+0)+0,w
  4290  0601  1283               	bcf	status, 5	;RP0=0, select bank0
  4291  0602  1303               	bcf	status, 6	;RP1=0, select bank0
  4292  0603  00FF               	movwf	btemp+1
  4293  0604  3082               	movlw	low(_column|8000h)
  4294  0605  077A               	addwf	0+(??_display+0)+0,w
  4295  0606  0084               	movwf	fsr0
  4296  0607  1803               	skipnc
  4297  0608  0AFF               	incf	btemp+1,f
  4298  0609  120A  158A  2000   	fcall	stringtab
              120A  118A         
  4299  060E  0087               	movwf	(7)	;volatile
  4300                           	line	512
  4301                           	
  4302  060F                     l3508:	
  4303                           ;LED_Ticker.c: 512: PORTD |= 0b00010000;
  4304  060F  1608               	bsf	(8)+(4/8),(4)&7	;volatile
  4305                           	line	513
  4306                           	
  4307  0610                     l3510:	
  4308                           ;LED_Ticker.c: 513: PORTA = 0x00;
  4309  0610  0185               	clrf	(5)	;volatile
  4310                           	line	514
  4311                           ;LED_Ticker.c: 514: }
  4312  0611  2E44               	goto	l3522
  4313                           	line	515
  4314                           	
  4315  0612                     l738:	
  4316                           	
  4317  0612                     l3512:	
  4318                           ;LED_Ticker.c: 515: else if (start < 66){
  4319  0612  0879               	movf	(display@start+1),w
  4320  0613  3A80               	xorlw	80h
  4321  0614  00FF               	movwf	btemp+1
  4322  0615  3080               	movlw	(high(042h))^80h
  4323  0616  027F               	subwf	btemp+1,w
  4324  0617  1D03               	skipz
  4325  0618  2E1B               	goto	u3385
  4326  0619  3042               	movlw	low(042h)
  4327  061A  0278               	subwf	(display@start),w
  4328  061B                     u3385:
  4329                           
  4330  061B  1803               	skipnc
  4331  061C  2E1E               	goto	u3381
  4332  061D  2E1F               	goto	u3380
  4333  061E                     u3381:
  4334  061E  2E3D               	goto	l3520
  4335  061F                     u3380:
  4336                           	line	516
  4337                           	
  4338  061F                     l3514:	
  4339                           ;LED_Ticker.c: 516: PORTC = column[start];
  4340  061F  0879               	movf	(display@start+1),w
  4341  0620  00FB               	movwf	(??_display+0)+0+1
  4342  0621  0878               	movf	(display@start),w
  4343  0622  00FA               	movwf	(??_display+0)+0
  4344  0623  3001               	movlw	01h
  4345  0624  00FF               	movwf	btemp+1
  4346  0625                     u3395:
  4347  0625  1003               	clrc
  4348  0626  0DFA               	rlf	(??_display+0)+0,f
  4349  0627  0DFB               	rlf	(??_display+0)+1,f
  4350  0628  0BFF               	decfsz	btemp+1,f
  4351  0629  2E25               	goto	u3395
  4352  062A  308A               	movlw	high(_column|8000h)
  4353  062B  077B               	addwf	1+(??_display+0)+0,w
  4354  062C  1283               	bcf	status, 5	;RP0=0, select bank0
  4355  062D  1303               	bcf	status, 6	;RP1=0, select bank0
  4356  062E  00FF               	movwf	btemp+1
  4357  062F  3082               	movlw	low(_column|8000h)
  4358  0630  077A               	addwf	0+(??_display+0)+0,w
  4359  0631  0084               	movwf	fsr0
  4360  0632  1803               	skipnc
  4361  0633  0AFF               	incf	btemp+1,f
  4362  0634  120A  158A  2000   	fcall	stringtab
              120A  118A         
  4363  0639  0087               	movwf	(7)	;volatile
  4364                           	line	517
  4365                           	
  4366  063A                     l3516:	
  4367                           ;LED_Ticker.c: 517: PORTD |= 0b00001000;
  4368  063A  1588               	bsf	(8)+(3/8),(3)&7	;volatile
  4369                           	line	518
  4370                           	
  4371  063B                     l3518:	
  4372                           ;LED_Ticker.c: 518: PORTA = 0x00;
  4373  063B  0185               	clrf	(5)	;volatile
  4374                           	line	519
  4375                           ;LED_Ticker.c: 519: }
  4376  063C  2E44               	goto	l3522
  4377                           	line	520
  4378                           	
  4379  063D                     l740:	
  4380                           	line	521
  4381                           	
  4382  063D                     l3520:	
  4383                           ;LED_Ticker.c: 520: else{
  4384                           ;LED_Ticker.c: 521: PORTB = 0x00;
  4385  063D  1283               	bcf	status, 5	;RP0=0, select bank0
  4386  063E  1303               	bcf	status, 6	;RP1=0, select bank0
  4387  063F  0186               	clrf	(6)	;volatile
  4388  0640  2E44               	goto	l3522
  4389                           	line	522
  4390                           	
  4391  0641                     l741:	
  4392  0641  2E44               	goto	l3522
  4393                           	
  4394  0642                     l739:	
  4395  0642  2E44               	goto	l3522
  4396                           	
  4397  0643                     l737:	
  4398  0643  2E44               	goto	l3522
  4399                           	
  4400  0644                     l735:	
  4401                           	line	523
  4402                           	
  4403  0644                     l3522:	
  4404                           ;LED_Ticker.c: 522: }
  4405                           ;LED_Ticker.c: 523: start++;
  4406  0644  3001               	movlw	low(01h)
  4407  0645  07F8               	addwf	(display@start),f
  4408  0646  1803               	skipnc
  4409  0647  0AF9               	incf	(display@start+1),f
  4410  0648  3000               	movlw	high(01h)
  4411  0649  07F9               	addwf	(display@start+1),f
  4412                           	line	524
  4413                           	
  4414  064A                     l3524:	
  4415                           ;LED_Ticker.c: 524: PORTB = characters[charNum][8];
  4416  064A  0877               	movf	(display@charNum+1),w
  4417  064B  01F1               	clrf	(?___wmul+1)
  4418  064C  07F1               	addwf	(?___wmul+1)
  4419  064D  0876               	movf	(display@charNum),w
  4420  064E  01F0               	clrf	(?___wmul)
  4421  064F  07F0               	addwf	(?___wmul)
  4422                           
  4423  0650  3018               	movlw	low(018h)
  4424  0651  00F2               	movwf	0+(?___wmul)+02h
  4425  0652  3000               	movlw	high(018h)
  4426  0653  00F3               	movwf	(0+(?___wmul)+02h)+1
  4427  0654  120A  118A  208B   	fcall	___wmul
              120A  118A         
  4428  0659  0870               	movf	(0+(?___wmul)),w
  4429  065A  3E10               	addlw	low(010h)
  4430  065B  00FA               	movwf	(??_display+0)+0
  4431  065C  0871               	movf	(1+(?___wmul)),w
  4432  065D  1803               	skipnc
  4433  065E  3E01               	addlw	1
  4434  065F  3E00               	addlw	high(010h)
  4435  0660  00FB               	movwf	1+(??_display+0)+0
  4436  0661  3088               	movlw	high(_characters|8000h)
  4437  0662  077B               	addwf	1+(??_display+0)+0,w
  4438  0663  1283               	bcf	status, 5	;RP0=0, select bank0
  4439  0664  1303               	bcf	status, 6	;RP1=0, select bank0
  4440  0665  00FF               	movwf	btemp+1
  4441  0666  3012               	movlw	low(_characters|8000h)
  4442  0667  077A               	addwf	0+(??_display+0)+0,w
  4443  0668  0084               	movwf	fsr0
  4444  0669  1803               	skipnc
  4445  066A  0AFF               	incf	btemp+1,f
  4446  066B  120A  158A  2000   	fcall	stringtab
              120A  118A         
  4447  0670  0086               	movwf	(6)	;volatile
  4448                           	line	525
  4449                           	
  4450  0671                     l3526:	
  4451                           ;LED_Ticker.c: 525: PORTD |= characters[charNum][9];
  4452  0671  0877               	movf	(display@charNum+1),w
  4453  0672  01F1               	clrf	(?___wmul+1)
  4454  0673  07F1               	addwf	(?___wmul+1)
  4455  0674  0876               	movf	(display@charNum),w
  4456  0675  01F0               	clrf	(?___wmul)
  4457  0676  07F0               	addwf	(?___wmul)
  4458                           
  4459  0677  3018               	movlw	low(018h)
  4460  0678  00F2               	movwf	0+(?___wmul)+02h
  4461  0679  3000               	movlw	high(018h)
  4462  067A  00F3               	movwf	(0+(?___wmul)+02h)+1
  4463  067B  120A  118A  208B   	fcall	___wmul
              120A  118A         
  4464  0680  0870               	movf	(0+(?___wmul)),w
  4465  0681  3E12               	addlw	low(012h)
  4466  0682  00FA               	movwf	(??_display+0)+0
  4467  0683  0871               	movf	(1+(?___wmul)),w
  4468  0684  1803               	skipnc
  4469  0685  3E01               	addlw	1
  4470  0686  3E00               	addlw	high(012h)
  4471  0687  00FB               	movwf	1+(??_display+0)+0
  4472  0688  3088               	movlw	high(_characters|8000h)
  4473  0689  077B               	addwf	1+(??_display+0)+0,w
  4474  068A  1283               	bcf	status, 5	;RP0=0, select bank0
  4475  068B  1303               	bcf	status, 6	;RP1=0, select bank0
  4476  068C  00FF               	movwf	btemp+1
  4477  068D  3012               	movlw	low(_characters|8000h)
  4478  068E  077A               	addwf	0+(??_display+0)+0,w
  4479  068F  0084               	movwf	fsr0
  4480  0690  1803               	skipnc
  4481  0691  0AFF               	incf	btemp+1,f
  4482  0692  120A  158A  2000   	fcall	stringtab
              120A  118A         
  4483  0697  00FC               	movwf	(??_display+2)+0
  4484  0698  087C               	movf	(??_display+2)+0,w
  4485  0699  0488               	iorwf	(8),f	;volatile
  4486                           	line	526
  4487                           	
  4488  069A                     l3528:	
  4489                           ;LED_Ticker.c: 526: for(i=0; i<20; i++){;}
  4490  069A  01A0               	clrf	(display@i)
  4491  069B  01A1               	clrf	(display@i+1)
  4492                           	
  4493  069C                     l3530:	
  4494  069C  0821               	movf	(display@i+1),w
  4495  069D  3A80               	xorlw	80h
  4496  069E  00FF               	movwf	btemp+1
  4497  069F  3080               	movlw	(high(014h))^80h
  4498  06A0  027F               	subwf	btemp+1,w
  4499  06A1  1D03               	skipz
  4500  06A2  2EA5               	goto	u3405
  4501  06A3  3014               	movlw	low(014h)
  4502  06A4  0220               	subwf	(display@i),w
  4503  06A5                     u3405:
  4504                           
  4505  06A5  1C03               	skipc
  4506  06A6  2EA8               	goto	u3401
  4507  06A7  2EA9               	goto	u3400
  4508  06A8                     u3401:
  4509  06A8  2EAB               	goto	l3534
  4510  06A9                     u3400:
  4511  06A9  2EC1               	goto	l3538
  4512                           	
  4513  06AA                     l3532:	
  4514  06AA  2EC1               	goto	l3538
  4515                           	
  4516  06AB                     l742:	
  4517                           	
  4518  06AB                     l3534:	
  4519  06AB  3001               	movlw	low(01h)
  4520  06AC  1283               	bcf	status, 5	;RP0=0, select bank0
  4521  06AD  1303               	bcf	status, 6	;RP1=0, select bank0
  4522  06AE  07A0               	addwf	(display@i),f
  4523  06AF  1803               	skipnc
  4524  06B0  0AA1               	incf	(display@i+1),f
  4525  06B1  3000               	movlw	high(01h)
  4526  06B2  07A1               	addwf	(display@i+1),f
  4527                           	
  4528  06B3                     l3536:	
  4529  06B3  0821               	movf	(display@i+1),w
  4530  06B4  3A80               	xorlw	80h
  4531  06B5  00FF               	movwf	btemp+1
  4532  06B6  3080               	movlw	(high(014h))^80h
  4533  06B7  027F               	subwf	btemp+1,w
  4534  06B8  1D03               	skipz
  4535  06B9  2EBC               	goto	u3415
  4536  06BA  3014               	movlw	low(014h)
  4537  06BB  0220               	subwf	(display@i),w
  4538  06BC                     u3415:
  4539                           
  4540  06BC  1C03               	skipc
  4541  06BD  2EBF               	goto	u3411
  4542  06BE  2EC0               	goto	u3410
  4543  06BF                     u3411:
  4544  06BF  2EAB               	goto	l3534
  4545  06C0                     u3410:
  4546  06C0  2EC1               	goto	l3538
  4547                           	
  4548  06C1                     l743:	
  4549                           	line	527
  4550                           	
  4551  06C1                     l3538:	
  4552                           ;LED_Ticker.c: 527: PORTA = 0x00;
  4553  06C1  1283               	bcf	status, 5	;RP0=0, select bank0
  4554  06C2  1303               	bcf	status, 6	;RP1=0, select bank0
  4555  06C3  0185               	clrf	(5)	;volatile
  4556                           	line	528
  4557                           ;LED_Ticker.c: 528: PORTB = 0x00;
  4558  06C4  0186               	clrf	(6)	;volatile
  4559                           	line	529
  4560                           ;LED_Ticker.c: 529: PORTC = 0x00;
  4561  06C5  0187               	clrf	(7)	;volatile
  4562                           	line	530
  4563                           ;LED_Ticker.c: 530: PORTD = 0x00;
  4564  06C6  0188               	clrf	(8)	;volatile
  4565                           	line	531
  4566                           ;LED_Ticker.c: 531: PORTE = 0x00;
  4567  06C7  0189               	clrf	(9)	;volatile
  4568                           	line	539
  4569                           	
  4570  06C8                     l3540:	
  4571                           ;LED_Ticker.c: 539: if((start < 21)){
  4572  06C8  0879               	movf	(display@start+1),w
  4573  06C9  3A80               	xorlw	80h
  4574  06CA  00FF               	movwf	btemp+1
  4575  06CB  3080               	movlw	(high(015h))^80h
  4576  06CC  027F               	subwf	btemp+1,w
  4577  06CD  1D03               	skipz
  4578  06CE  2ED1               	goto	u3425
  4579  06CF  3015               	movlw	low(015h)
  4580  06D0  0278               	subwf	(display@start),w
  4581  06D1                     u3425:
  4582                           
  4583  06D1  1803               	skipnc
  4584  06D2  2ED4               	goto	u3421
  4585  06D3  2ED5               	goto	u3420
  4586  06D4                     u3421:
  4587  06D4  2EF3               	goto	l3548
  4588  06D5                     u3420:
  4589                           	line	540
  4590                           	
  4591  06D5                     l3542:	
  4592                           ;LED_Ticker.c: 540: PORTC = column[start];
  4593  06D5  0879               	movf	(display@start+1),w
  4594  06D6  00FB               	movwf	(??_display+0)+0+1
  4595  06D7  0878               	movf	(display@start),w
  4596  06D8  00FA               	movwf	(??_display+0)+0
  4597  06D9  3001               	movlw	01h
  4598  06DA  00FF               	movwf	btemp+1
  4599  06DB                     u3435:
  4600  06DB  1003               	clrc
  4601  06DC  0DFA               	rlf	(??_display+0)+0,f
  4602  06DD  0DFB               	rlf	(??_display+0)+1,f
  4603  06DE  0BFF               	decfsz	btemp+1,f
  4604  06DF  2EDB               	goto	u3435
  4605  06E0  308A               	movlw	high(_column|8000h)
  4606  06E1  077B               	addwf	1+(??_display+0)+0,w
  4607  06E2  1283               	bcf	status, 5	;RP0=0, select bank0
  4608  06E3  1303               	bcf	status, 6	;RP1=0, select bank0
  4609  06E4  00FF               	movwf	btemp+1
  4610  06E5  3082               	movlw	low(_column|8000h)
  4611  06E6  077A               	addwf	0+(??_display+0)+0,w
  4612  06E7  0084               	movwf	fsr0
  4613  06E8  1803               	skipnc
  4614  06E9  0AFF               	incf	btemp+1,f
  4615  06EA  120A  158A  2000   	fcall	stringtab
              120A  118A         
  4616  06EF  0087               	movwf	(7)	;volatile
  4617                           	line	541
  4618                           	
  4619  06F0                     l3544:	
  4620                           ;LED_Ticker.c: 541: PORTD |= 0b01000000;
  4621  06F0  1708               	bsf	(8)+(6/8),(6)&7	;volatile
  4622                           	line	542
  4623                           	
  4624  06F1                     l3546:	
  4625                           ;LED_Ticker.c: 542: PORTA = 0x00;
  4626  06F1  0185               	clrf	(5)	;volatile
  4627                           	line	544
  4628                           ;LED_Ticker.c: 544: }
  4629  06F2  2F7B               	goto	l3574
  4630                           	line	545
  4631                           	
  4632  06F3                     l744:	
  4633                           	
  4634  06F3                     l3548:	
  4635                           ;LED_Ticker.c: 545: else if (start < 36){
  4636  06F3  0879               	movf	(display@start+1),w
  4637  06F4  3A80               	xorlw	80h
  4638  06F5  00FF               	movwf	btemp+1
  4639  06F6  3080               	movlw	(high(024h))^80h
  4640  06F7  027F               	subwf	btemp+1,w
  4641  06F8  1D03               	skipz
  4642  06F9  2EFC               	goto	u3445
  4643  06FA  3024               	movlw	low(024h)
  4644  06FB  0278               	subwf	(display@start),w
  4645  06FC                     u3445:
  4646                           
  4647  06FC  1803               	skipnc
  4648  06FD  2EFF               	goto	u3441
  4649  06FE  2F00               	goto	u3440
  4650  06FF                     u3441:
  4651  06FF  2F1E               	goto	l3556
  4652  0700                     u3440:
  4653                           	line	546
  4654                           	
  4655  0700                     l3550:	
  4656                           ;LED_Ticker.c: 546: PORTC = column[start];
  4657  0700  0879               	movf	(display@start+1),w
  4658  0701  00FB               	movwf	(??_display+0)+0+1
  4659  0702  0878               	movf	(display@start),w
  4660  0703  00FA               	movwf	(??_display+0)+0
  4661  0704  3001               	movlw	01h
  4662  0705  00FF               	movwf	btemp+1
  4663  0706                     u3455:
  4664  0706  1003               	clrc
  4665  0707  0DFA               	rlf	(??_display+0)+0,f
  4666  0708  0DFB               	rlf	(??_display+0)+1,f
  4667  0709  0BFF               	decfsz	btemp+1,f
  4668  070A  2F06               	goto	u3455
  4669  070B  308A               	movlw	high(_column|8000h)
  4670  070C  077B               	addwf	1+(??_display+0)+0,w
  4671  070D  1283               	bcf	status, 5	;RP0=0, select bank0
  4672  070E  1303               	bcf	status, 6	;RP1=0, select bank0
  4673  070F  00FF               	movwf	btemp+1
  4674  0710  3082               	movlw	low(_column|8000h)
  4675  0711  077A               	addwf	0+(??_display+0)+0,w
  4676  0712  0084               	movwf	fsr0
  4677  0713  1803               	skipnc
  4678  0714  0AFF               	incf	btemp+1,f
  4679  0715  120A  158A  2000   	fcall	stringtab
              120A  118A         
  4680  071A  0087               	movwf	(7)	;volatile
  4681                           	line	547
  4682                           	
  4683  071B                     l3552:	
  4684                           ;LED_Ticker.c: 547: PORTD |= 0b00100000;
  4685  071B  1688               	bsf	(8)+(5/8),(5)&7	;volatile
  4686                           	line	548
  4687                           	
  4688  071C                     l3554:	
  4689                           ;LED_Ticker.c: 548: PORTA = 0x00;
  4690  071C  0185               	clrf	(5)	;volatile
  4691                           	line	550
  4692                           ;LED_Ticker.c: 550: }
  4693  071D  2F7B               	goto	l3574
  4694                           	line	551
  4695                           	
  4696  071E                     l746:	
  4697                           	
  4698  071E                     l3556:	
  4699                           ;LED_Ticker.c: 551: else if (start < 51){
  4700  071E  0879               	movf	(display@start+1),w
  4701  071F  3A80               	xorlw	80h
  4702  0720  00FF               	movwf	btemp+1
  4703  0721  3080               	movlw	(high(033h))^80h
  4704  0722  027F               	subwf	btemp+1,w
  4705  0723  1D03               	skipz
  4706  0724  2F27               	goto	u3465
  4707  0725  3033               	movlw	low(033h)
  4708  0726  0278               	subwf	(display@start),w
  4709  0727                     u3465:
  4710                           
  4711  0727  1803               	skipnc
  4712  0728  2F2A               	goto	u3461
  4713  0729  2F2B               	goto	u3460
  4714  072A                     u3461:
  4715  072A  2F49               	goto	l3564
  4716  072B                     u3460:
  4717                           	line	552
  4718                           	
  4719  072B                     l3558:	
  4720                           ;LED_Ticker.c: 552: PORTC = column[start];
  4721  072B  0879               	movf	(display@start+1),w
  4722  072C  00FB               	movwf	(??_display+0)+0+1
  4723  072D  0878               	movf	(display@start),w
  4724  072E  00FA               	movwf	(??_display+0)+0
  4725  072F  3001               	movlw	01h
  4726  0730  00FF               	movwf	btemp+1
  4727  0731                     u3475:
  4728  0731  1003               	clrc
  4729  0732  0DFA               	rlf	(??_display+0)+0,f
  4730  0733  0DFB               	rlf	(??_display+0)+1,f
  4731  0734  0BFF               	decfsz	btemp+1,f
  4732  0735  2F31               	goto	u3475
  4733  0736  308A               	movlw	high(_column|8000h)
  4734  0737  077B               	addwf	1+(??_display+0)+0,w
  4735  0738  1283               	bcf	status, 5	;RP0=0, select bank0
  4736  0739  1303               	bcf	status, 6	;RP1=0, select bank0
  4737  073A  00FF               	movwf	btemp+1
  4738  073B  3082               	movlw	low(_column|8000h)
  4739  073C  077A               	addwf	0+(??_display+0)+0,w
  4740  073D  0084               	movwf	fsr0
  4741  073E  1803               	skipnc
  4742  073F  0AFF               	incf	btemp+1,f
  4743  0740  120A  158A  2000   	fcall	stringtab
              120A  118A         
  4744  0745  0087               	movwf	(7)	;volatile
  4745                           	line	553
  4746                           	
  4747  0746                     l3560:	
  4748                           ;LED_Ticker.c: 553: PORTD |= 0b00010000;
  4749  0746  1608               	bsf	(8)+(4/8),(4)&7	;volatile
  4750                           	line	554
  4751                           	
  4752  0747                     l3562:	
  4753                           ;LED_Ticker.c: 554: PORTA = 0x00;
  4754  0747  0185               	clrf	(5)	;volatile
  4755                           	line	555
  4756                           ;LED_Ticker.c: 555: }
  4757  0748  2F7B               	goto	l3574
  4758                           	line	556
  4759                           	
  4760  0749                     l748:	
  4761                           	
  4762  0749                     l3564:	
  4763                           ;LED_Ticker.c: 556: else if (start < 66){
  4764  0749  0879               	movf	(display@start+1),w
  4765  074A  3A80               	xorlw	80h
  4766  074B  00FF               	movwf	btemp+1
  4767  074C  3080               	movlw	(high(042h))^80h
  4768  074D  027F               	subwf	btemp+1,w
  4769  074E  1D03               	skipz
  4770  074F  2F52               	goto	u3485
  4771  0750  3042               	movlw	low(042h)
  4772  0751  0278               	subwf	(display@start),w
  4773  0752                     u3485:
  4774                           
  4775  0752  1803               	skipnc
  4776  0753  2F55               	goto	u3481
  4777  0754  2F56               	goto	u3480
  4778  0755                     u3481:
  4779  0755  2F74               	goto	l3572
  4780  0756                     u3480:
  4781                           	line	557
  4782                           	
  4783  0756                     l3566:	
  4784                           ;LED_Ticker.c: 557: PORTC = column[start];
  4785  0756  0879               	movf	(display@start+1),w
  4786  0757  00FB               	movwf	(??_display+0)+0+1
  4787  0758  0878               	movf	(display@start),w
  4788  0759  00FA               	movwf	(??_display+0)+0
  4789  075A  3001               	movlw	01h
  4790  075B  00FF               	movwf	btemp+1
  4791  075C                     u3495:
  4792  075C  1003               	clrc
  4793  075D  0DFA               	rlf	(??_display+0)+0,f
  4794  075E  0DFB               	rlf	(??_display+0)+1,f
  4795  075F  0BFF               	decfsz	btemp+1,f
  4796  0760  2F5C               	goto	u3495
  4797  0761  308A               	movlw	high(_column|8000h)
  4798  0762  077B               	addwf	1+(??_display+0)+0,w
  4799  0763  1283               	bcf	status, 5	;RP0=0, select bank0
  4800  0764  1303               	bcf	status, 6	;RP1=0, select bank0
  4801  0765  00FF               	movwf	btemp+1
  4802  0766  3082               	movlw	low(_column|8000h)
  4803  0767  077A               	addwf	0+(??_display+0)+0,w
  4804  0768  0084               	movwf	fsr0
  4805  0769  1803               	skipnc
  4806  076A  0AFF               	incf	btemp+1,f
  4807  076B  120A  158A  2000   	fcall	stringtab
              120A  118A         
  4808  0770  0087               	movwf	(7)	;volatile
  4809                           	line	558
  4810                           	
  4811  0771                     l3568:	
  4812                           ;LED_Ticker.c: 558: PORTD |= 0b00001000;
  4813  0771  1588               	bsf	(8)+(3/8),(3)&7	;volatile
  4814                           	line	559
  4815                           	
  4816  0772                     l3570:	
  4817                           ;LED_Ticker.c: 559: PORTA = 0x00;
  4818  0772  0185               	clrf	(5)	;volatile
  4819                           	line	560
  4820                           ;LED_Ticker.c: 560: }
  4821  0773  2F7B               	goto	l3574
  4822                           	line	561
  4823                           	
  4824  0774                     l750:	
  4825                           	line	562
  4826                           	
  4827  0774                     l3572:	
  4828                           ;LED_Ticker.c: 561: else{
  4829                           ;LED_Ticker.c: 562: PORTB = 0x00;
  4830  0774  1283               	bcf	status, 5	;RP0=0, select bank0
  4831  0775  1303               	bcf	status, 6	;RP1=0, select bank0
  4832  0776  0186               	clrf	(6)	;volatile
  4833  0777  2F7B               	goto	l3574
  4834                           	line	563
  4835                           	
  4836  0778                     l751:	
  4837  0778  2F7B               	goto	l3574
  4838                           	
  4839  0779                     l749:	
  4840  0779  2F7B               	goto	l3574
  4841                           	
  4842  077A                     l747:	
  4843  077A  2F7B               	goto	l3574
  4844                           	
  4845  077B                     l745:	
  4846                           	line	564
  4847                           	
  4848  077B                     l3574:	
  4849                           ;LED_Ticker.c: 563: }
  4850                           ;LED_Ticker.c: 564: start++;
  4851  077B  3001               	movlw	low(01h)
  4852  077C  07F8               	addwf	(display@start),f
  4853  077D  1803               	skipnc
  4854  077E  0AF9               	incf	(display@start+1),f
  4855  077F  3000               	movlw	high(01h)
  4856  0780  07F9               	addwf	(display@start+1),f
  4857                           	line	565
  4858                           	
  4859  0781                     l3576:	
  4860                           ;LED_Ticker.c: 565: PORTB = characters[charNum][10];
  4861  0781  0877               	movf	(display@charNum+1),w
  4862  0782  01F1               	clrf	(?___wmul+1)
  4863  0783  07F1               	addwf	(?___wmul+1)
  4864  0784  0876               	movf	(display@charNum),w
  4865  0785  01F0               	clrf	(?___wmul)
  4866  0786  07F0               	addwf	(?___wmul)
  4867                           
  4868  0787  3018               	movlw	low(018h)
  4869  0788  00F2               	movwf	0+(?___wmul)+02h
  4870  0789  3000               	movlw	high(018h)
  4871  078A  00F3               	movwf	(0+(?___wmul)+02h)+1
  4872  078B  120A  118A  208B   	fcall	___wmul
              120A  118A         
  4873  0790  0870               	movf	(0+(?___wmul)),w
  4874  0791  3E14               	addlw	low(014h)
  4875  0792  00FA               	movwf	(??_display+0)+0
  4876  0793  0871               	movf	(1+(?___wmul)),w
  4877  0794  1803               	skipnc
  4878  0795  3E01               	addlw	1
  4879  0796  3E00               	addlw	high(014h)
  4880  0797  00FB               	movwf	1+(??_display+0)+0
  4881  0798  3088               	movlw	high(_characters|8000h)
  4882  0799  077B               	addwf	1+(??_display+0)+0,w
  4883  079A  1283               	bcf	status, 5	;RP0=0, select bank0
  4884  079B  1303               	bcf	status, 6	;RP1=0, select bank0
  4885  079C  00FF               	movwf	btemp+1
  4886  079D  3012               	movlw	low(_characters|8000h)
  4887  079E  077A               	addwf	0+(??_display+0)+0,w
  4888  079F  0084               	movwf	fsr0
  4889  07A0  1803               	skipnc
  4890  07A1  0AFF               	incf	btemp+1,f
  4891  07A2  120A  158A  2000   	fcall	stringtab
              120A  118A         
  4892  07A7  0086               	movwf	(6)	;volatile
  4893                           	line	566
  4894                           	
  4895  07A8                     l3578:	
  4896                           ;LED_Ticker.c: 566: PORTD |= characters[charNum][11];
  4897  07A8  0877               	movf	(display@charNum+1),w
  4898  07A9  01F1               	clrf	(?___wmul+1)
  4899  07AA  07F1               	addwf	(?___wmul+1)
  4900  07AB  0876               	movf	(display@charNum),w
  4901  07AC  01F0               	clrf	(?___wmul)
  4902  07AD  07F0               	addwf	(?___wmul)
  4903                           
  4904  07AE  3018               	movlw	low(018h)
  4905  07AF  00F2               	movwf	0+(?___wmul)+02h
  4906  07B0  3000               	movlw	high(018h)
  4907  07B1  00F3               	movwf	(0+(?___wmul)+02h)+1
  4908  07B2  120A  118A  208B   	fcall	___wmul
              120A  118A         
  4909  07B7  0870               	movf	(0+(?___wmul)),w
  4910  07B8  3E16               	addlw	low(016h)
  4911  07B9  00FA               	movwf	(??_display+0)+0
  4912  07BA  0871               	movf	(1+(?___wmul)),w
  4913  07BB  1803               	skipnc
  4914  07BC  3E01               	addlw	1
  4915  07BD  3E00               	addlw	high(016h)
  4916  07BE  00FB               	movwf	1+(??_display+0)+0
  4917  07BF  3088               	movlw	high(_characters|8000h)
  4918  07C0  077B               	addwf	1+(??_display+0)+0,w
  4919  07C1  1283               	bcf	status, 5	;RP0=0, select bank0
  4920  07C2  1303               	bcf	status, 6	;RP1=0, select bank0
  4921  07C3  00FF               	movwf	btemp+1
  4922  07C4  3012               	movlw	low(_characters|8000h)
  4923  07C5  077A               	addwf	0+(??_display+0)+0,w
  4924  07C6  0084               	movwf	fsr0
  4925  07C7  1803               	skipnc
  4926  07C8  0AFF               	incf	btemp+1,f
  4927  07C9  120A  158A  2000   	fcall	stringtab
              120A  118A         
  4928  07CE  00FC               	movwf	(??_display+2)+0
  4929  07CF  087C               	movf	(??_display+2)+0,w
  4930  07D0  0488               	iorwf	(8),f	;volatile
  4931                           	line	567
  4932                           	
  4933  07D1                     l3580:	
  4934                           ;LED_Ticker.c: 567: for(i=0; i<20; i++){
  4935  07D1  01A0               	clrf	(display@i)
  4936  07D2  01A1               	clrf	(display@i+1)
  4937                           	
  4938  07D3                     l3582:	
  4939  07D3  0821               	movf	(display@i+1),w
  4940  07D4  3A80               	xorlw	80h
  4941  07D5  00FF               	movwf	btemp+1
  4942  07D6  3080               	movlw	(high(014h))^80h
  4943  07D7  027F               	subwf	btemp+1,w
  4944  07D8  1D03               	skipz
  4945  07D9  2FDC               	goto	u3505
  4946  07DA  3014               	movlw	low(014h)
  4947  07DB  0220               	subwf	(display@i),w
  4948  07DC                     u3505:
  4949                           
  4950  07DC  1C03               	skipc
  4951  07DD  2FDF               	goto	u3501
  4952  07DE  2FE0               	goto	u3500
  4953  07DF                     u3501:
  4954  07DF  2FE2               	goto	l3586
  4955  07E0                     u3500:
  4956  07E0  2FF8               	goto	l3590
  4957                           	
  4958  07E1                     l3584:	
  4959  07E1  2FF8               	goto	l3590
  4960                           	
  4961  07E2                     l752:	
  4962                           	
  4963  07E2                     l3586:	
  4964                           ;LED_Ticker.c: 568: ;
  4965  07E2  3001               	movlw	low(01h)
  4966  07E3  1283               	bcf	status, 5	;RP0=0, select bank0
  4967  07E4  1303               	bcf	status, 6	;RP1=0, select bank0
  4968  07E5  07A0               	addwf	(display@i),f
  4969  07E6  1803               	skipnc
  4970  07E7  0AA1               	incf	(display@i+1),f
  4971  07E8  3000               	movlw	high(01h)
  4972  07E9  07A1               	addwf	(display@i+1),f
  4973                           	
  4974  07EA                     l3588:	
  4975  07EA  0821               	movf	(display@i+1),w
  4976  07EB  3A80               	xorlw	80h
  4977  07EC  00FF               	movwf	btemp+1
  4978  07ED  3080               	movlw	(high(014h))^80h
  4979  07EE  027F               	subwf	btemp+1,w
  4980  07EF  1D03               	skipz
  4981  07F0  2FF3               	goto	u3515
  4982  07F1  3014               	movlw	low(014h)
  4983  07F2  0220               	subwf	(display@i),w
  4984  07F3                     u3515:
  4985                           
  4986  07F3  1C03               	skipc
  4987  07F4  2FF6               	goto	u3511
  4988  07F5  2FF7               	goto	u3510
  4989  07F6                     u3511:
  4990  07F6  2FE2               	goto	l3586
  4991  07F7                     u3510:
  4992  07F7  2FF8               	goto	l3590
  4993                           	
  4994  07F8                     l753:	
  4995                           	line	570
  4996                           	
  4997  07F8                     l3590:	
  4998                           ;LED_Ticker.c: 569: }
  4999                           ;LED_Ticker.c: 570: PORTA = 0x00;
  5000  07F8  1283               	bcf	status, 5	;RP0=0, select bank0
  5001  07F9  1303               	bcf	status, 6	;RP1=0, select bank0
  5002  07FA  0185               	clrf	(5)	;volatile
  5003                           	line	571
  5004                           ;LED_Ticker.c: 571: PORTB = 0x00;
  5005  07FB  0186               	clrf	(6)	;volatile
  5006                           	line	572
  5007                           ;LED_Ticker.c: 572: PORTC = 0x00;
  5008  07FC  0187               	clrf	(7)	;volatile
  5009                           	line	573
  5010                           ;LED_Ticker.c: 573: PORTD = 0x00;
  5011  07FD  0188               	clrf	(8)	;volatile
  5012                           	line	574
  5013                           ;LED_Ticker.c: 574: PORTE = 0x00;
  5014  07FE  0189               	clrf	(9)	;volatile
  5015                           	line	613
  5016                           	
  5017  07FF                     l754:	
  5018  07FF  0008               	return
  5019                           	opt stack 0
  5020                           GLOBAL	__end_of_display
  5021  0800                     	__end_of_display:
  5022 ;; =============== function _display ends ============
  5023                           
  5024                           	signat	_display,8312
  5025                           	global	___wmul
  5026                           psect	text137,local,class=CODE,delta=2
  5027                           global __ptext137
  5028  008B                     __ptext137:
  5029                           
  5030 ;; *************** function ___wmul *****************
  5031 ;; Defined at:
  5032 ;;		line 3 in file "C:\Program Files\HI-TECH Software\PICC\9.83\sources\wmul.c"
  5033 ;; Parameters:    Size  Location     Type
  5034 ;;  multiplier      2    0[COMMON] unsigned int 
  5035 ;;  multiplicand    2    2[COMMON] unsigned int 
  5036 ;; Auto vars:     Size  Location     Type
  5037 ;;  product         2    4[COMMON] unsigned int 
  5038 ;; Return value:  Size  Location     Type
  5039 ;;                  2    0[COMMON] unsigned int 
  5040 ;; Registers used:
  5041 ;;		wreg, status,2, status,0
  5042 ;; Tracked objects:
  5043 ;;		On entry : 0/0
  5044 ;;		On exit  : 0/0
  5045 ;;		Unchanged: 0/0
  5046 ;; Data sizes:     COMMON   BANK0   BANK1   BANK3   BANK2
  5047 ;;      Params:         4       0       0       0       0
  5048 ;;      Locals:         2       0       0       0       0
  5049 ;;      Temps:          0       0       0       0       0
  5050 ;;      Totals:         6       0       0       0       0
  5051 ;;Total ram usage:        6 bytes
  5052 ;; Hardware stack levels used:    1
  5053 ;; This function calls:
  5054 ;;		Nothing
  5055 ;; This function is called by:
  5056 ;;		_display
  5057 ;;		_main
  5058 ;; This function uses a non-reentrant model
  5059 ;;
  5060                           psect	text137
  5061                           	file	"C:\Program Files\HI-TECH Software\PICC\9.83\sources\wmul.c"
  5062                           	line	3
  5063                           	global	__size_of___wmul
  5064  002A                     	__size_of___wmul	equ	__end_of___wmul-___wmul
  5065                           	
  5066  008B                     ___wmul:	
  5067                           	opt	stack 6
  5068                           ; Regs used in ___wmul: [wreg+status,2+status,0]
  5069                           	line	4
  5070                           	
  5071  008B                     l3266:	
  5072  008B  01F4               	clrf	(___wmul@product)
  5073  008C  01F5               	clrf	(___wmul@product+1)
  5074  008D  288E               	goto	l3268
  5075                           	line	6
  5076                           	
  5077  008E                     l1456:	
  5078                           	line	7
  5079                           	
  5080  008E                     l3268:	
  5081  008E  1C70               	btfss	(___wmul@multiplier),(0)&7
  5082  008F  2891               	goto	u2881
  5083  0090  2892               	goto	u2880
  5084  0091                     u2881:
  5085  0091  2898               	goto	l1457
  5086  0092                     u2880:
  5087                           	line	8
  5088                           	
  5089  0092                     l3270:	
  5090  0092  0872               	movf	(___wmul@multiplicand),w
  5091  0093  07F4               	addwf	(___wmul@product),f
  5092  0094  1803               	skipnc
  5093  0095  0AF5               	incf	(___wmul@product+1),f
  5094  0096  0873               	movf	(___wmul@multiplicand+1),w
  5095  0097  07F5               	addwf	(___wmul@product+1),f
  5096                           	
  5097  0098                     l1457:	
  5098                           	line	9
  5099  0098  3001               	movlw	01h
  5100                           	
  5101  0099                     u2895:
  5102  0099  1003               	clrc
  5103  009A  0DF2               	rlf	(___wmul@multiplicand),f
  5104  009B  0DF3               	rlf	(___wmul@multiplicand+1),f
  5105  009C  3EFF               	addlw	-1
  5106  009D  1D03               	skipz
  5107  009E  2899               	goto	u2895
  5108                           	line	10
  5109                           	
  5110  009F                     l3272:	
  5111  009F  3001               	movlw	01h
  5112                           	
  5113  00A0                     u2905:
  5114  00A0  1003               	clrc
  5115  00A1  0CF1               	rrf	(___wmul@multiplier+1),f
  5116  00A2  0CF0               	rrf	(___wmul@multiplier),f
  5117  00A3  3EFF               	addlw	-1
  5118  00A4  1D03               	skipz
  5119  00A5  28A0               	goto	u2905
  5120                           	line	11
  5121  00A6  0871               	movf	((___wmul@multiplier+1)),w
  5122  00A7  0470               	iorwf	((___wmul@multiplier)),w
  5123  00A8  1D03               	skipz
  5124  00A9  28AB               	goto	u2911
  5125  00AA  28AC               	goto	u2910
  5126  00AB                     u2911:
  5127  00AB  288E               	goto	l3268
  5128  00AC                     u2910:
  5129  00AC  28AD               	goto	l3274
  5130                           	
  5131  00AD                     l1458:	
  5132                           	line	12
  5133                           	
  5134  00AD                     l3274:	
  5135  00AD  0875               	movf	(___wmul@product+1),w
  5136  00AE  01F1               	clrf	(?___wmul+1)
  5137  00AF  07F1               	addwf	(?___wmul+1)
  5138  00B0  0874               	movf	(___wmul@product),w
  5139  00B1  01F0               	clrf	(?___wmul)
  5140  00B2  07F0               	addwf	(?___wmul)
  5141                           
  5142  00B3  28B4               	goto	l1459
  5143                           	
  5144  00B4                     l3276:	
  5145                           	line	13
  5146                           	
  5147  00B4                     l1459:	
  5148  00B4  0008               	return
  5149                           	opt stack 0
  5150                           GLOBAL	__end_of___wmul
  5151  00B5                     	__end_of___wmul:
  5152 ;; =============== function ___wmul ends ============
  5153                           
  5154                           	signat	___wmul,8314
  5155                           	global	_init_ports
  5156                           psect	text138,local,class=CODE,delta=2
  5157                           global __ptext138
  5158  0072                     __ptext138:
  5159                           
  5160 ;; *************** function _init_ports *****************
  5161 ;; Defined at:
  5162 ;;		line 313 in file "LED_Ticker.c"
  5163 ;; Parameters:    Size  Location     Type
  5164 ;;		None
  5165 ;; Auto vars:     Size  Location     Type
  5166 ;;		None
  5167 ;; Return value:  Size  Location     Type
  5168 ;;		None               void
  5169 ;; Registers used:
  5170 ;;		status,2
  5171 ;; Tracked objects:
  5172 ;;		On entry : 0/0
  5173 ;;		On exit  : 0/0
  5174 ;;		Unchanged: 0/0
  5175 ;; Data sizes:     COMMON   BANK0   BANK1   BANK3   BANK2
  5176 ;;      Params:         0       0       0       0       0
  5177 ;;      Locals:         0       0       0       0       0
  5178 ;;      Temps:          0       0       0       0       0
  5179 ;;      Totals:         0       0       0       0       0
  5180 ;;Total ram usage:        0 bytes
  5181 ;; Hardware stack levels used:    1
  5182 ;; This function calls:
  5183 ;;		Nothing
  5184 ;; This function is called by:
  5185 ;;		_main
  5186 ;; This function uses a non-reentrant model
  5187 ;;
  5188                           psect	text138
  5189                           	file	"LED_Ticker.c"
  5190                           	line	313
  5191                           	global	__size_of_init_ports
  5192  0019                     	__size_of_init_ports	equ	__end_of_init_ports-_init_ports
  5193                           	
  5194  0072                     _init_ports:	
  5195                           	opt	stack 7
  5196                           ; Regs used in _init_ports: [status,2]
  5197                           	line	314
  5198                           	
  5199  0072                     l3264:	
  5200                           ;LED_Ticker.c: 314: PORTA = 0x00;
  5201  0072  1283               	bcf	status, 5	;RP0=0, select bank0
  5202  0073  1303               	bcf	status, 6	;RP1=0, select bank0
  5203  0074  0185               	clrf	(5)	;volatile
  5204                           	line	315
  5205                           ;LED_Ticker.c: 315: TRISA = 0x00;
  5206  0075  1683               	bsf	status, 5	;RP0=1, select bank1
  5207  0076  1303               	bcf	status, 6	;RP1=0, select bank1
  5208  0077  0185               	clrf	(133)^080h	;volatile
  5209                           	line	316
  5210                           ;LED_Ticker.c: 316: PORTB = 0x00;
  5211  0078  1283               	bcf	status, 5	;RP0=0, select bank0
  5212  0079  1303               	bcf	status, 6	;RP1=0, select bank0
  5213  007A  0186               	clrf	(6)	;volatile
  5214                           	line	317
  5215                           ;LED_Ticker.c: 317: TRISB = 0x00;
  5216  007B  1683               	bsf	status, 5	;RP0=1, select bank1
  5217  007C  1303               	bcf	status, 6	;RP1=0, select bank1
  5218  007D  0186               	clrf	(134)^080h	;volatile
  5219                           	line	318
  5220                           ;LED_Ticker.c: 318: PORTC = 0x00;
  5221  007E  1283               	bcf	status, 5	;RP0=0, select bank0
  5222  007F  1303               	bcf	status, 6	;RP1=0, select bank0
  5223  0080  0187               	clrf	(7)	;volatile
  5224                           	line	319
  5225                           ;LED_Ticker.c: 319: TRISC = 0x00;
  5226  0081  1683               	bsf	status, 5	;RP0=1, select bank1
  5227  0082  1303               	bcf	status, 6	;RP1=0, select bank1
  5228  0083  0187               	clrf	(135)^080h	;volatile
  5229                           	line	320
  5230                           ;LED_Ticker.c: 320: PORTD = 0x00;
  5231  0084  1283               	bcf	status, 5	;RP0=0, select bank0
  5232  0085  1303               	bcf	status, 6	;RP1=0, select bank0
  5233  0086  0188               	clrf	(8)	;volatile
  5234                           	line	321
  5235                           ;LED_Ticker.c: 321: TRISD = 0x00;
  5236  0087  1683               	bsf	status, 5	;RP0=1, select bank1
  5237  0088  1303               	bcf	status, 6	;RP1=0, select bank1
  5238  0089  0188               	clrf	(136)^080h	;volatile
  5239                           	line	322
  5240                           	
  5241  008A                     l691:	
  5242  008A  0008               	return
  5243                           	opt stack 0
  5244                           GLOBAL	__end_of_init_ports
  5245  008B                     	__end_of_init_ports:
  5246 ;; =============== function _init_ports ends ============
  5247                           
  5248                           	signat	_init_ports,88
  5249                           psect	text139,local,class=CODE,delta=2
  5250                           global __ptext139
  5251  0000                     __ptext139:
  5252                           	global	btemp
  5253  007E                     	btemp set 07Eh
  5254                           
  5255                           	DABS	1,126,2	;btemp
  5256                           	global	wtemp0
  5257  007E                     	wtemp0 set btemp


HI-TECH Software PICC Macro Assembler V9.83 build 10920 
Symbol Table                                                                                   Wed Mar 27 17:02:34 2013

                   pc 0002                    _RD 0C60                    _WR 0C61                    fsr 0004  
 ___wmul@multiplicand 0072                   l700 0169                   l701 016D                   l710 0298  
                 l702 01CF                   l711 029C                   l703 01E5                   l720 03CF  
                 l712 0306                   l704 0217                   l721 03D3                   l713 031C  
                 l705 029F                   l730 0506                   l722 043D                   l714 034E  
                 l706 0242                   l731 050A                   l723 0453                   l715 03D6  
                 l707 029E                   l740 063D                   l732 0574                   l724 0485  
                 l716 0379                   l708 026D                   l741 0641                   l733 058A  
                 l725 050D                   l717 03D5                   l709 029D                   l750 0774  
                 l742 06AB                   l734 05BC                   l726 04B0                   l718 03A4  
                 l751 0778                   l743 06C1                   l735 0644                   l727 050C  
                 l719 03D4                   l752 07E2                   l744 06F3                   l736 05E7  
                 l728 04DB                   l760 0FF4                   l753 07F8                   l745 077B  
                 l737 0643                   l729 050B                   l761 0FC2                   l754 07FF  
                 l746 071E                   l738 0612                   l770 0FFB                   l762 0F58  
                 l691 008A                   l747 077A                   l739 0642                   l771 0FFC  
                 l763 0F87                   l748 0749                   l772 0FFD                   l764 0FBA  
                 l749 0779                   l773 0FFD                   l765 0F99                   l694 00E8  
                 l766 0F90                   l695 0170                   l767 0FB9                   l759 0F25  
                 l696 0113                   l768 0FD1                   l697 016F                   l769 0FF3  
                 l698 013E                   l699 016E                   _GIE 005F                   fsr0 0004  
                 indf 0000                  l3300 013B                  l3310 0167                  l3302 013C  
                l1456 008E                  l3400 0379                  l3320 01BE                  l3312 0169  
                l3304 013E                  l1457 0098                  l1458 00AD                  l3410 03B1  
                l3402 0386                  l3330 01E5                  l3322 01C0                  l3306 014B  
                l3314 0170                  l1459 00B4                  l3500 05E4                  l3420 03DC  
                l3412 03CC                  l3404 03A1                  l3340 0217                  l3332 01EC  
                l3324 01CE                  l3316 0176                  l3308 0166                  l3270 0092  
                l3510 0610                  l3502 05E5                  l3430 043D                  l3422 0403  
                l3414 03CD                  l3406 03A2                  l3350 024F                  l3342 0224  
                l3334 01F9                  l3326 01CF                  l3318 0195                  l3264 0072  
                l3272 009F                  l3520 063D                  l3512 0612                  l3504 05E7  
                l3440 0482                  l3432 0445                  l3424 042C                  l3416 03CF  
                l3408 03A4                  l3360 0295                  l3352 026A                  l3344 023F  
                l3336 0214                  l3328 01D7                  l3280 00BD                  l3600 0F1E  
                l3274 00AD                  l3266 008B                  l3530 069C                  l3514 061F  
                l3506 05F4                  l3522 0644                  l3450 04AE                  l3442 0483  
                l3434 0453                  l3426 042E                  l3418 03D6                  l3370 02CC  
                l3362 0296                  l3354 026B                  l3346 0240                  l3338 0215  
                l3290 00F5                  l3282 00CA                  l3610 0F7E                  l3602 0F25  
                l3276 00B4                  l3268 008E                  l3540 06C8                  l3532 06AA  
                l3524 064A                  l3516 063A                  l3508 060F                  l3460 04DB  
                l3452 04B0                  l3444 0485                  l3436 045A                  l3428 043C  
                l3380 030E                  l3372 02F5                  l3364 0298                  l3356 026D  
                l3348 0242                  l3292 0110                  l3284 00E5                  l3620 0FBA  
                l3612 0F87                  l3604 0F53                  l3550 0700                  l3542 06D5  
                l3534 06AB                  l3526 0671                  l3518 063B                  l3462 04E8  
                l3454 04BD                  l3446 0492                  l3470 050D                  l3438 0467  
                l3390 034C                  l3382 031C                  l3374 02F7                  l3358 027A  
                l3366 029F                  l3294 0111                  l3286 00E6                  l3278 00B5  
                l3630 0FEC                  l3622 0FD1                  l3614 0F8D                  l3606 0F58  
                l3560 0746                  l3552 071B                  l3544 06F0                  l3536 06B3  
                l3528 069A                  l3480 0573                  l3472 0513                  l3464 0503  
                l3456 04D8                  l3448 04AD                  l3392 034E                  l3384 0323  
                l3376 0305                  l3368 02A5                  l3296 0113                  l3288 00E8  
                l3624 0FD5                  l3616 0F90                  l3608 0F66                  l3632 0FF4  
                l3570 0772                  l3562 0747                  l3554 071C                  l3546 06F1  
                l3538 06C1                  l3490 059E                  l3482 0574                  l3474 053A  
                l3466 0504                  l3458 04D9                  l3394 035B                  l3386 0330  
                l3378 0306                  l3298 0120                  l3626 0FDB                  l3618 0F99  
                l3580 07D1                  l3572 0774                  l3564 0749                  l3556 071E  
                l3548 06F3                  l3492 05B9                  l3484 057C                  l3476 0563  
                l3468 0506                  l3396 0376                  l3388 034B                  l3628 0FE8  
                l3590 07F8                  l3582 07D3                  l3566 0756                  l3558 072B  
                l3574 077B                  l3494 05BA                  l3486 058A                  l3478 0565  
                l3398 0377                  l3584 07E1                  l3576 0781                  l3568 0771  
                l3496 05BC                  l3488 0591                  l3592 0EFA                  l3586 07E2  
                l3578 07A8                  l3498 05C9                  l3594 0F00                  l3588 07EA  
                l3596 0F15                  l3598 0F19                  u3000 01CD                  u3001 01CC  
                u3010 01E4                  u3011 01E3                  u3100 0304                  u3020 01F9  
                u3101 0303                  u3021 01F8                  u3005 01C9                  u3110 031B  
                u3111 031A                  u3015 01E0                  u3200 043B                  u3120 0330  
                u3040 0224                  u3201 043A                  u3121 032F                  u3105 0300  
                u3041 0223                  u3025 01F5                  u3210 0452                  u3211 0451  
                u3115 0317                  u3035 01FF                  u3300 0572                  u3220 0467  
                u3140 035B                  u3060 024F                  u3301 0571                  u3221 0466  
                u3205 0437                  u3141 035A                  u3125 032C                  u3061 024E  
                u3045 0220                  u3310 0589                  u3311 0588                  u3215 044E  
                u3135 0336                  u3055 022A                  u3400 06A9                  u3320 059E  
                u3240 0492                  u3160 0386                  u3080 027A                  u3401 06A8  
                u3321 059D                  u3305 056E                  u3241 0491                  u3225 0463  
                u3161 0385                  u3145 0357                  u3081 0279                  u3065 024B  
                u3410 06C0                  u3411 06BF                  u3315 0585                  u3235 046D  
                u3155 0361                  u3075 0255                  u3500 07E0                  u3420 06D5  
                u3340 05C9                  u3260 04BD                  u3180 03B1                  u3501 07DF  
                u3421 06D4                  u3405 06A5                  u3341 05C8                  u3325 059A  
                u3261 04BC                  u3245 048E                  u3181 03B0                  u3165 0382  
                u3085 0276                  u3510 07F7                  u3511 07F6                  u3415 06BC  
                u3335 05A4                  u3255 0498                  u3175 038C                  u3095 0280  
                u3440 0700                  u3360 05F4                  u3280 04E8                  u3520 0F08  
                u3505 07DC                  u3441 06FF                  u3425 06D1                  u3361 05F3  
                u3345 05C5                  u3281 04E7                  u3265 04B9                  u3185 03AD  
         main@counter 003A                  u3530 0F53                  u3515 07F3                  u3435 06DB  
                u3355 05CF                  u3275 04C3                  u3195 03B7                  u3531 0F52  
                u3460 072B                  u3380 061F                  u3540 0F66                  u3461 072A  
                u3445 06FC                  u3381 061E                  u3365 05F0                  u3285 04E4  
                u3541 0F65                  u2910 00AC                  u3550 0FB8                  u2911 00AB  
                u3455 0706                  u3375 05FA                  u3295 04EE                  u3551 0FB7  
                u3535 0F4F                  u3480 0756                  u2920 00CA                  u3560 0FD0  
                u2905 00A0                  u3481 0755                  u3465 0727                  u3385 061B  
                u2921 00C9                  u3561 0FCF                  u3570 0FE8                  u3475 0731  
                u3395 0625                  u3571 0FE7                  u3555 0FB4                  u2940 00F5  
                u3485 0752                  u2941 00F4                  u2925 00C6                  u3565 0FCC  
                u3495 075C                  u2935 00D0                  u3575 0FE4                  u2880 0092  
                u2960 0120                  u2881 0091                  u2961 011F                  u2945 00F1  
                u2955 00FB                  u2980 014B                  u2981 014A                  u2965 011C  
                u2895 0099                  u2975 0126                  u2985 0147                  u2995 0151  
                _WREN 0C62                  _main 0EFA                  btemp 007E                  start 0000  
               ?_main 0070                 _EEADR 010D                 _CARRY 0018                 _PORTA 0005  
               _PORTB 0006                 _PORTC 0007                 _PORTD 0008                 _PORTE 0009  
               _TRISA 0085                 _TRISB 0086                 _TRISC 0087                 _TRISD 0088  
     __end_of_display 0800          main@numChars 003C          display@start 0078                 _index 0054  
               main@i 0040                 main@j 0038                 pclath 000A                 status 0003  
               wtemp0 007E          __end_of_main 1000                ??_main 0022                _EEDATA 010C  
              _EECON1 018C                _EECON2 018D                ___wmul 008B                _column 0A82  
           ??_display 007A        __pcstackCOMMON 0070          __pidataBANK0 004D            _characters 0812  
          __pmaintext 0EFA               ?___wmul 0070        display@charNum 0076       __size_of___wmul 002A  
          _init_ports 0072               _display 00B5  end_of_initialization 0049               init_ram 0063  
        __pstringtext 0800            main@offset 003E        __end_of___wmul 00B5           ?_init_ports 0070  
 start_initialization 003B              ??___wmul 0074           __pdataBANK0 0042         __pcstackBANK0 0020  
 __size_of_init_ports 0019             __pnvBANK0 0054             __ptext136 00B5             __ptext137 008B  
           __ptext138 0072             __ptext139 0000              ?_display 0076        ___wmul@product 0074  
           main@F1286 0042           __stringbase 0812     ___wmul@multiplier 0070             init_fetch 005F  
        ??_init_ports 0070      __size_of_display 074B         __size_of_main 0106    __end_of_init_ports 008B  
            display@i 0020             stringcode 080A              stringtab 0800       main@streamChars 0026  
